Certificate:
    Data:
        Version: 3 (0x2)
        Serial Number: 268435678 (0x100000de)
        Signature Algorithm: sha256WithRSAEncryption
        Issuer: C=DE, ST=Hessen, O=privacyidea, CN=CA001
        Validity
            Not Before: Feb 25 15:08:57 2022 GMT
            Not After : Feb 25 15:08:57 2023 GMT
        Subject: OU=realm1, CN=cornelius/emailAddress=user@localhost.localdomain
        Subject Public Key Info:
            Public Key Algorithm: rsaEncryption
                RSA Public-Key: (2048 bit)
                Modulus:
                    00:bb:0f:16:98:b6:e5:9a:65:86:2a:9e:6b:c7:bd:
                    a1:e4:80:0a:a2:38:1e:74:72:a6:ed:cd:98:53:f1:
                    51:79:39:7d:01:13:da:61:60:90:ca:55:b2:ce:0d:
                    c4:03:65:1a:be:eb:ce:4a:8c:1d:b8:25:19:e6:2a:
                    15:c6:6f:c2:6d:d2:bb:98:34:94:38:58:9b:8b:6d:
                    df:a3:27:1e:21:7c:c6:de:62:4a:49:2a:dd:ba:33:
                    cc:c3:37:66:c4:48:9e:95:6b:c0:28:35:ec:fe:2d:
                    b3:51:51:ab:1d:4c:56:c6:cc:33:27:f5:21:de:38:
                    77:43:59:8f:2f:f6:20:e0:4a:62:a5:ed:9b:97:d2:
                    c5:b1:e4:6d:05:95:0b:fa:3a:cc:c5:e4:0b:a1:a9:
                    0a:dd:71:04:34:c7:73:96:5a:a0:16:31:6c:89:6e:
                    2d:58:34:8a:6d:a2:3f:3b:b0:a6:1a:18:ae:33:85:
                    ff:ea:2d:25:da:76:64:43:af:c9:3b:77:ef:47:5a:
                    91:56:d7:1d:f9:4d:60:d8:ab:c2:f4:df:40:43:e2:
                    7e:ef:b4:2c:ad:09:9d:92:9a:70:f9:59:53:f9:ca:
                    9e:93:4f:a7:ec:00:b7:92:d2:f3:b0:db:ac:27:d5:
                    97:a2:ab:a8:36:76:82:af:6c:26:e8:46:8f:a6:4d:
                    75:f1
                Exponent: 65537 (0x10001)
        X509v3 extensions:
            X509v3 Key Usage: 
                Digital Signature, Key Encipherment
            X509v3 Basic Constraints: 
                CA:FALSE
            Netscape Cert Type: 
                SSL Server
            Netscape Comment: 
                OpenSSL Generated Server Certificate
            X509v3 Subject Key Identifier: 
                42:DF:DB:98:BC:26:E8:03:FC:52:FF:A7:A0:2F:E6:6F:87:27:6B:C6
            X509v3 Authority Key Identifier: 
                keyid:F4:A7:C0:CC:91:46:AF:64:F3:91:F2:27:F8:C8:B2:6F:8A:87:32:73
                DirName:/C=DE/ST=Hessen/O=privacyidea/CN=CA001
                serial:FB:C8:EB:AC:83:CD:12:07

            X509v3 Extended Key Usage: 
                TLS Web Server Authentication
    Signature Algorithm: sha256WithRSAEncryption
         5e:fb:78:07:c9:69:41:d1:71:0d:6f:3a:90:7a:7f:c7:87:c4:
         c1:1e:12:19:7c:f1:c4:cc:31:e6:81:e4:ef:51:61:f6:f5:61:
         b2:c8:6d:7f:c2:a2:e0:95:71:dc:ea:b0:9e:7c:e2:bf:2e:17:
         34:0b:dc:7c:70:e5:16:ed:e9:54:d5:b1:29:36:e0:4c:f8:3b:
         b4:65:a6:20:5c:e4:79:f7:f1:37:e0:9b:6a:d7:45:f1:ef:40:
         4c:d1:96:92:9d:1a:c2:81:b1:0c:9a:c4:2f:9c:b9:39:c1:c8:
         31:61:b3:6e:4d:4d:49:10:7a:73:ae:a3:a8:1b:ef:3e:02:2f:
         5d:8d:99:bd:5d:56:df:48:2c:54:10:f0:ef:3d:aa:94:ae:5b:
         b5:b0:48:d0:cc:7f:e4:3b:05:bc:a2:bd:27:19:b4:61:59:4c:
         07:78:3b:e9:8f:ec:8e:cd:a4:6b:22:0d:b8:0a:54:32:6d:de:
         f6:c8:d8:f6:03:aa:56:a4:63:8a:a8:f3:07:37:1f:f1:f9:71:
         1a:9b:4c:8d:64:ff:a7:3e:b0:1f:c2:b2:2b:57:d5:e4:c7:b8:
         14:1e:bf:1e:13:f4:70:75:f8:67:f5:e4:10:c5:b1:20:3d:dd:
         68:37:3c:6a:ae:f2:b1:93:b6:a3:4a:bf:7f:03:09:58:ef:49:
         f6:e5:47:0a
-----BEGIN CERTIFICATE-----
MIIEIjCCAwqgAwIBAgIEEAAA3jANBgkqhkiG9w0BAQsFADBEMQswCQYDVQQGEwJE
RTEPMA0GA1UECAwGSGVzc2VuMRQwEgYDVQQKDAtwcml2YWN5aWRlYTEOMAwGA1UE
AwwFQ0EwMDEwHhcNMjIwMjI1MTUwODU3WhcNMjMwMjI1MTUwODU3WjBQMQ8wDQYD
VQQLDAZyZWFsbTExEjAQBgNVBAMMCWNvcm5lbGl1czEpMCcGCSqGSIb3DQEJARYa
dXNlckBsb2NhbGhvc3QubG9jYWxkb21haW4wggEiMA0GCSqGSIb3DQEBAQUAA4IB
DwAwggEKAoIBAQC7DxaYtuWaZYYqnmvHvaHkgAqiOB50cqbtzZhT8VF5OX0BE9ph
YJDKVbLODcQDZRq+685KjB24JRnmKhXGb8Jt0ruYNJQ4WJuLbd+jJx4hfMbeYkpJ
Kt26M8zDN2bESJ6Va8AoNez+LbNRUasdTFbGzDMn9SHeOHdDWY8v9iDgSmKl7ZuX
0sWx5G0FlQv6OszF5AuhqQrdcQQ0x3OWWqAWMWyJbi1YNIptoj87sKYaGK4zhf/q
LSXadmRDr8k7d+9HWpFW1x35TWDYq8L030BD4n7vtCytCZ2SmnD5WVP5yp6TT6fs
ALeS0vOw26wn1Zeiq6g2doKvbCboRo+mTXXxAgMBAAGjggEOMIIBCjALBgNVHQ8E
BAMCBaAwCQYDVR0TBAIwADARBglghkgBhvhCAQEEBAMCBkAwMwYJYIZIAYb4QgEN
BCYWJE9wZW5TU0wgR2VuZXJhdGVkIFNlcnZlciBDZXJ0aWZpY2F0ZTAdBgNVHQ4E
FgQUQt/bmLwm6AP8Uv+noC/mb4cna8YwdAYDVR0jBG0wa4AU9KfAzJFGr2TzkfIn
+Miyb4qHMnOhSKRGMEQxCzAJBgNVBAYTAkRFMQ8wDQYDVQQIDAZIZXNzZW4xFDAS
BgNVBAoMC3ByaXZhY3lpZGVhMQ4wDAYDVQQDDAVDQTAwMYIJAPvI66yDzRIHMBMG
A1UdJQQMMAoGCCsGAQUFBwMBMA0GCSqGSIb3DQEBCwUAA4IBAQBe+3gHyWlB0XEN
bzqQen/Hh8TBHhIZfPHEzDHmgeTvUWH29WGyyG1/wqLglXHc6rCefOK/Lhc0C9x8
cOUW7elU1bEpNuBM+Du0ZaYgXOR59/E34Jtq10Xx70BM0ZaSnRrCgbEMmsQvnLk5
wcgxYbNuTU1JEHpzrqOoG+8+Ai9djZm9XVbfSCxUEPDvPaqUrlu1sEjQzH/kOwW8
or0nGbRhWUwHeDvpj+yOzaRrIg24ClQybd72yNj2A6pWpGOKqPMHNx/x+XEam0yN
ZP+nPrAfwrIrV9Xkx7gUHr8eE/Rwdfhn9eQQxbEgPd1oNzxqrvKxk7ajSr9/AwlY
70n25UcK
-----END CERTIFICATE-----
