Certificate:
    Data:
        Version: 3 (0x2)
        Serial Number: 268435675 (0x100000db)
        Signature Algorithm: sha256WithRSAEncryption
        Issuer: C=DE, ST=Hessen, O=privacyidea, CN=CA001
        Validity
            Not Before: Feb 25 15:08:31 2022 GMT
            Not After : Feb 25 15:08:31 2023 GMT
        Subject: C=DE, ST=Hessen, O=privacyidea, CN=requester.localdomain
        Subject Public Key Info:
            Public Key Algorithm: rsaEncryption
                RSA Public-Key: (2048 bit)
                Modulus:
                    00:cd:be:14:4f:fa:ce:01:3f:42:22:1b:1d:9c:af:
                    dd:92:d2:7f:db:6c:b7:3e:39:43:43:6b:13:03:f1:
                    05:f4:07:74:bc:76:69:28:0b:af:19:8e:d7:fc:e3:
                    cd:c6:58:f2:ca:7f:08:6d:53:fc:07:02:44:24:c6:
                    b4:34:4c:8c:04:fe:33:0e:40:e2:20:ba:02:73:5a:
                    f7:f5:4f:63:6e:cc:c6:b6:df:54:1d:37:39:7d:51:
                    36:26:5f:bd:dc:3f:a8:8b:6b:a2:ae:b6:9d:d6:21:
                    e7:df:41:b8:7a:28:2a:68:48:ca:a8:2d:ed:e1:e9:
                    46:5e:5a:72:6d:b4:84:38:87:91:fd:94:11:0b:28:
                    84:c6:c2:2f:2a:fb:01:f9:36:7a:09:75:d1:33:88:
                    3c:73:41:5b:c8:bf:94:89:70:a1:f0:c0:b9:2e:50:
                    53:1e:b1:17:64:69:f4:2d:81:e0:a9:0d:0e:32:e9:
                    ba:55:8a:85:f1:1b:6f:49:79:b4:7f:88:c3:0d:3e:
                    54:88:9b:3d:1f:38:8c:04:f3:ee:6a:63:2b:f5:c6:
                    db:b4:83:aa:c4:78:41:3a:7d:4b:e1:c8:3e:71:ca:
                    1b:61:59:ea:c6:c4:ca:32:5e:c9:e9:bf:12:29:e6:
                    c6:c3:63:fe:a0:55:da:7a:f1:60:98:4d:26:ed:fa:
                    70:2d
                Exponent: 65537 (0x10001)
        X509v3 extensions:
            X509v3 Key Usage: 
                Digital Signature, Key Encipherment
            X509v3 Basic Constraints: 
                CA:FALSE
            Netscape Cert Type: 
                SSL Server
            Netscape Comment: 
                OpenSSL Generated Server Certificate
            X509v3 Subject Key Identifier: 
                53:3F:ED:5D:09:07:B3:65:7B:AB:45:C9:24:5B:09:77:80:0A:96:ED
            X509v3 Authority Key Identifier: 
                keyid:F4:A7:C0:CC:91:46:AF:64:F3:91:F2:27:F8:C8:B2:6F:8A:87:32:73
                DirName:/C=DE/ST=Hessen/O=privacyidea/CN=CA001
                serial:FB:C8:EB:AC:83:CD:12:07

            X509v3 Extended Key Usage: 
                TLS Web Server Authentication
    Signature Algorithm: sha256WithRSAEncryption
         b3:6c:9f:db:a5:5a:53:a9:42:38:61:6a:fa:49:45:fe:40:90:
         78:31:e3:76:41:60:27:d1:b7:e8:7a:b6:32:86:34:bb:c7:3b:
         62:e0:5d:3d:1c:90:cc:3d:bb:56:7c:4e:b3:0c:dd:96:24:0a:
         9e:a7:41:80:ca:7e:b5:55:89:a9:a1:31:9c:cf:e0:3a:6b:c4:
         14:b7:e3:43:a1:0d:c0:cf:39:4d:da:e5:33:3c:5e:59:a5:15:
         05:30:26:0e:a4:22:bd:7a:49:13:f8:5d:97:ec:da:8d:ae:53:
         7c:ef:70:7e:12:20:e5:8c:24:b3:14:6b:bd:a3:1b:4a:77:a1:
         42:41:8b:a3:4d:8e:56:3b:2d:ef:f4:8e:ca:df:ea:53:46:76:
         0c:1c:5e:83:e9:68:ca:a7:28:c6:71:fa:dd:41:04:0a:a6:45:
         b7:d9:e1:4f:87:86:23:56:a8:1e:bc:b6:93:d5:e5:18:61:da:
         a8:d7:e3:f6:81:3b:17:7a:47:6a:c8:7c:04:49:f4:e5:e2:01:
         f9:ae:7d:3e:d4:0c:3f:e4:b5:a9:79:53:1d:72:15:11:d5:90:
         67:5b:30:47:b9:bd:3e:37:e7:d9:3e:76:dc:c2:8b:3d:5b:6a:
         68:93:26:f5:9b:4a:3d:30:f3:07:24:6a:d8:71:26:4e:bb:62:
         3a:8e:e7:5d
-----BEGIN CERTIFICATE-----
MIIEJjCCAw6gAwIBAgIEEAAA2zANBgkqhkiG9w0BAQsFADBEMQswCQYDVQQGEwJE
RTEPMA0GA1UECAwGSGVzc2VuMRQwEgYDVQQKDAtwcml2YWN5aWRlYTEOMAwGA1UE
AwwFQ0EwMDEwHhcNMjIwMjI1MTUwODMxWhcNMjMwMjI1MTUwODMxWjBUMQswCQYD
VQQGEwJERTEPMA0GA1UECAwGSGVzc2VuMRQwEgYDVQQKDAtwcml2YWN5aWRlYTEe
MBwGA1UEAwwVcmVxdWVzdGVyLmxvY2FsZG9tYWluMIIBIjANBgkqhkiG9w0BAQEF
AAOCAQ8AMIIBCgKCAQEAzb4UT/rOAT9CIhsdnK/dktJ/22y3PjlDQ2sTA/EF9Ad0
vHZpKAuvGY7X/OPNxljyyn8IbVP8BwJEJMa0NEyMBP4zDkDiILoCc1r39U9jbszG
tt9UHTc5fVE2Jl+93D+oi2uirrad1iHn30G4eigqaEjKqC3t4elGXlpybbSEOIeR
/ZQRCyiExsIvKvsB+TZ6CXXRM4g8c0FbyL+UiXCh8MC5LlBTHrEXZGn0LYHgqQ0O
Mum6VYqF8RtvSXm0f4jDDT5UiJs9HziMBPPuamMr9cbbtIOqxHhBOn1L4cg+ccob
YVnqxsTKMl7J6b8SKebGw2P+oFXaevFgmE0m7fpwLQIDAQABo4IBDjCCAQowCwYD
VR0PBAQDAgWgMAkGA1UdEwQCMAAwEQYJYIZIAYb4QgEBBAQDAgZAMDMGCWCGSAGG
+EIBDQQmFiRPcGVuU1NMIEdlbmVyYXRlZCBTZXJ2ZXIgQ2VydGlmaWNhdGUwHQYD
VR0OBBYEFFM/7V0JB7Nle6tFySRbCXeACpbtMHQGA1UdIwRtMGuAFPSnwMyRRq9k
85HyJ/jIsm+KhzJzoUikRjBEMQswCQYDVQQGEwJERTEPMA0GA1UECAwGSGVzc2Vu
MRQwEgYDVQQKDAtwcml2YWN5aWRlYTEOMAwGA1UEAwwFQ0EwMDGCCQD7yOusg80S
BzATBgNVHSUEDDAKBggrBgEFBQcDATANBgkqhkiG9w0BAQsFAAOCAQEAs2yf26Va
U6lCOGFq+klF/kCQeDHjdkFgJ9G36Hq2MoY0u8c7YuBdPRyQzD27VnxOswzdliQK
nqdBgMp+tVWJqaExnM/gOmvEFLfjQ6ENwM85TdrlMzxeWaUVBTAmDqQivXpJE/hd
l+zaja5TfO9wfhIg5YwksxRrvaMbSnehQkGLo02OVjst7/SOyt/qU0Z2DBxeg+lo
yqcoxnH63UEECqZFt9nhT4eGI1aoHry2k9XlGGHaqNfj9oE7F3pHash8BEn05eIB
+a59PtQMP+S1qXlTHXIVEdWQZ1swR7m9Pjfn2T523MKLPVtqaJMm9ZtKPTDzByRq
2HEmTrtiOo7nXQ==
-----END CERTIFICATE-----
