Certificate:
    Data:
        Version: 3 (0x2)
        Serial Number: 268435680 (0x100000e0)
        Signature Algorithm: sha256WithRSAEncryption
        Issuer: C=DE, ST=Hessen, O=privacyidea, CN=CA001
        Validity
            Not Before: Feb 24 15:52:51 2022 GMT
            Not After : Feb 24 15:52:51 2023 GMT
        Subject: CN=selfservice,CN=user,O=realm1/emailAddress=meine
        Subject Public Key Info:
            Public Key Algorithm: rsaEncryption
                RSA Public-Key: (2048 bit)
                Modulus:
                    00:cf:3c:d4:33:0e:12:c4:e6:da:cd:b6:56:a1:1c:
                    26:bb:26:1c:8a:4a:73:a8:58:8a:b6:1e:b3:8b:99:
                    d2:1d:07:c2:92:89:79:c0:69:d8:c8:df:28:61:98:
                    1e:b3:fe:ae:2b:bd:78:a9:f7:6e:47:dc:a3:a0:16:
                    8c:85:02:c1:4e:92:fd:72:6e:f0:c8:03:29:9b:b8:
                    00:6e:c0:83:95:c8:34:20:36:9c:b3:e5:e4:e6:76:
                    73:a3:1a:ad:40:96:e0:53:54:00:ec:76:79:9a:c6:
                    0d:7e:b6:bd:29:ec:83:f3:cb:89:a4:cb:6c:00:ba:
                    0c:c5:78:0f:ff:69:b8:94:f4:04:70:43:3f:d8:9e:
                    d7:a7:fb:5d:ce:75:8e:da:e7:c4:07:b1:9d:de:6f:
                    88:4b:b6:4d:9a:cf:f9:bc:fa:9f:cd:32:6d:f6:3a:
                    0b:0d:23:42:78:ec:97:42:bf:0e:4d:60:56:e1:d3:
                    02:f2:19:cb:84:57:90:e5:70:a1:a2:83:35:86:e2:
                    da:86:9f:f9:8a:c4:79:b3:52:28:da:cb:bb:34:ca:
                    d3:da:91:4a:cf:8d:76:a2:b2:6b:9b:f9:96:fd:09:
                    2a:da:11:23:4d:f0:cb:d6:b2:b1:0e:12:6c:9a:19:
                    65:98:87:ca:e4:ee:24:ce:44:ac:90:8f:9d:1b:c5:
                    2a:9d
                Exponent: 65537 (0x10001)
        X509v3 extensions:
            X509v3 Key Usage: 
                Digital Signature, Key Encipherment
            X509v3 Basic Constraints: 
                CA:FALSE
            Netscape Cert Type: 
                SSL Server
            Netscape Comment: 
                OpenSSL Generated Server Certificate
            X509v3 Subject Key Identifier: 
                4D:07:90:AD:FF:1D:0D:E7:1A:DD:D6:2E:FA:BA:34:CB:AA:1F:24:C6
            X509v3 Authority Key Identifier: 
                keyid:F4:A7:C0:CC:91:46:AF:64:F3:91:F2:27:F8:C8:B2:6F:8A:87:32:73
                DirName:/C=DE/ST=Hessen/O=privacyidea/CN=CA001
                serial:FB:C8:EB:AC:83:CD:12:07

            X509v3 Extended Key Usage: 
                TLS Web Server Authentication
    Signature Algorithm: sha256WithRSAEncryption
         b8:21:af:cf:84:38:30:70:36:ee:e2:d8:b3:f9:70:59:27:73:
         24:a2:a8:4e:82:4f:7e:0a:61:98:58:1b:d7:ba:02:1a:88:d3:
         6c:f4:eb:f9:f1:68:d7:ea:7e:ab:1a:ea:83:94:07:32:fd:2b:
         02:fb:84:d7:93:00:38:85:55:1e:a3:20:11:7c:e5:dc:58:c6:
         66:cf:98:fe:b6:5f:70:5b:61:ce:1b:0c:b5:e5:66:7f:35:a7:
         3b:27:57:a4:f3:1d:4c:9d:76:3c:14:ed:7a:9c:aa:7f:bf:7e:
         70:d0:68:e2:90:9d:42:5d:6e:67:0c:f0:87:86:41:15:20:52:
         8d:81:7a:1a:a6:35:e7:36:95:64:13:74:6c:67:b5:a8:e2:5b:
         fb:18:fb:cf:33:84:e2:aa:21:6f:52:43:6b:ad:17:c2:6a:e3:
         53:88:ab:54:67:79:f0:ad:bd:6d:78:01:d2:b8:db:22:e1:47:
         36:fb:5f:48:6f:53:7c:70:d0:a3:67:6b:8f:24:af:4c:6d:aa:
         2a:e0:3c:b9:f3:58:c6:b5:57:17:cf:86:0a:d2:b8:6e:c4:15:
         8a:4e:b1:35:5c:e5:29:f4:6c:5b:0f:d7:c9:8b:2d:6f:31:46:
         2a:1b:a7:37:fd:c8:7b:49:43:26:7e:eb:a5:a8:4d:71:5d:5c:
         9c:81:60:fe
-----BEGIN CERTIFICATE-----
MIIEDzCCAvegAwIBAgIEEAAA4DANBgkqhkiG9w0BAQsFADBEMQswCQYDVQQGEwJE
RTEPMA0GA1UECAwGSGVzc2VuMRQwEgYDVQQKDAtwcml2YWN5aWRlYTEOMAwGA1UE
AwwFQ0EwMDEwHhcNMjIwMjI0MTU1MjUxWhcNMjMwMjI0MTU1MjUxWjA9MSUwIwYD
VQQDDBxzZWxmc2VydmljZSxDTj11c2VyLE89cmVhbG0xMRQwEgYJKoZIhvcNAQkB
FgVtZWluZTCCASIwDQYJKoZIhvcNAQEBBQADggEPADCCAQoCggEBAM881DMOEsTm
2s22VqEcJrsmHIpKc6hYirYes4uZ0h0HwpKJecBp2MjfKGGYHrP+riu9eKn3bkfc
o6AWjIUCwU6S/XJu8MgDKZu4AG7Ag5XINCA2nLPl5OZ2c6MarUCW4FNUAOx2eZrG
DX62vSnsg/PLiaTLbAC6DMV4D/9puJT0BHBDP9ie16f7Xc51jtrnxAexnd5viEu2
TZrP+bz6n80ybfY6Cw0jQnjsl0K/Dk1gVuHTAvIZy4RXkOVwoaKDNYbi2oaf+YrE
ebNSKNrLuzTK09qRSs+NdqKya5v5lv0JKtoRI03wy9aysQ4SbJoZZZiHyuTuJM5E
rJCPnRvFKp0CAwEAAaOCAQ4wggEKMAsGA1UdDwQEAwIFoDAJBgNVHRMEAjAAMBEG
CWCGSAGG+EIBAQQEAwIGQDAzBglghkgBhvhCAQ0EJhYkT3BlblNTTCBHZW5lcmF0
ZWQgU2VydmVyIENlcnRpZmljYXRlMB0GA1UdDgQWBBRNB5Ct/x0N5xrd1i76ujTL
qh8kxjB0BgNVHSMEbTBrgBT0p8DMkUavZPOR8if4yLJviocyc6FIpEYwRDELMAkG
A1UEBhMCREUxDzANBgNVBAgMBkhlc3NlbjEUMBIGA1UECgwLcHJpdmFjeWlkZWEx
DjAMBgNVBAMMBUNBMDAxggkA+8jrrIPNEgcwEwYDVR0lBAwwCgYIKwYBBQUHAwEw
DQYJKoZIhvcNAQELBQADggEBALghr8+EODBwNu7i2LP5cFkncySiqE6CT34KYZhY
G9e6AhqI02z06/nxaNfqfqsa6oOUBzL9KwL7hNeTADiFVR6jIBF85dxYxmbPmP62
X3BbYc4bDLXlZn81pzsnV6TzHUyddjwU7Xqcqn+/fnDQaOKQnUJdbmcM8IeGQRUg
Uo2BehqmNec2lWQTdGxntajiW/sY+88zhOKqIW9SQ2utF8Jq41OIq1RnefCtvW14
AdK42yLhRzb7X0hvU3xw0KNna48kr0xtqirgPLnzWMa1VxfPhgrSuG7EFYpOsTVc
5Sn0bFsP18mLLW8xRiobpzf9yHtJQyZ+66WoTXFdXJyBYP4=
-----END CERTIFICATE-----
