Certificate:
    Data:
        Version: 3 (0x2)
        Serial Number: 268435667 (0x100000d3)
        Signature Algorithm: sha256WithRSAEncryption
        Issuer: C=DE, ST=Hessen, O=privacyidea, CN=CA001
        Validity
            Not Before: Feb 25 15:05:31 2022 GMT
            Not After : Feb 25 15:05:31 2023 GMT
        Subject: CN=cn=cornelius
        Subject Public Key Info:
            Public Key Algorithm: rsaEncryption
                RSA Public-Key: (2048 bit)
                Modulus:
                    00:ce:a4:39:30:25:73:e4:9d:e6:37:3b:85:59:83:
                    ef:a3:6e:f9:83:b9:f7:48:b0:0b:d5:e8:05:40:61:
                    cd:c5:5a:bc:11:2f:5b:4e:d0:4f:b8:d0:e8:7f:05:
                    ab:ad:24:0b:90:d4:3f:60:ec:15:b6:4e:be:8e:d9:
                    26:ab:f2:2f:7f:35:c2:a6:a1:bc:52:3a:d9:88:fb:
                    b3:fa:71:20:b9:51:0e:f8:af:0d:16:be:bd:5d:b9:
                    ab:30:d5:ac:6b:3c:bc:ee:28:4a:4f:6f:d4:09:15:
                    f7:98:af:77:db:36:15:2e:1e:ee:0f:d0:d9:60:ad:
                    db:b9:c4:3f:c6:25:32:f9:e3:e9:50:b8:ec:84:a0:
                    c4:d2:9c:fd:ce:25:80:85:7e:3a:ad:4c:a7:40:1b:
                    0a:58:18:9f:c2:5e:36:e1:d1:44:e9:46:b6:dc:b4:
                    28:a2:ec:ed:02:f7:25:79:e1:86:8e:69:67:52:ee:
                    82:21:b7:84:2d:cc:e7:a8:39:57:7d:a3:1e:e9:50:
                    63:77:29:ab:e4:a5:ff:dc:ee:4c:4b:5e:08:2b:62:
                    08:2d:75:b8:26:6c:93:eb:f5:45:ea:cd:83:58:53:
                    15:46:e6:6b:43:c1:2f:d9:88:4b:3d:d5:fd:0c:ff:
                    51:52:ed:54:fb:27:2d:59:ef:4c:50:ce:71:cd:eb:
                    5a:99
                Exponent: 65537 (0x10001)
        X509v3 extensions:
            X509v3 Key Usage: 
                Digital Signature, Key Encipherment
            X509v3 Basic Constraints: 
                CA:FALSE
            Netscape Cert Type: 
                SSL Server
            Netscape Comment: 
                OpenSSL Generated Server Certificate
            X509v3 Subject Key Identifier: 
                0E:D5:BA:4E:7D:92:57:15:FD:61:4E:34:5B:E9:62:D0:20:1C:7D:08
            X509v3 Authority Key Identifier: 
                keyid:F4:A7:C0:CC:91:46:AF:64:F3:91:F2:27:F8:C8:B2:6F:8A:87:32:73
                DirName:/C=DE/ST=Hessen/O=privacyidea/CN=CA001
                serial:FB:C8:EB:AC:83:CD:12:07

            X509v3 Extended Key Usage: 
                TLS Web Server Authentication
    Signature Algorithm: sha256WithRSAEncryption
         ab:b8:4a:04:43:84:df:47:29:c3:5a:c1:71:52:e5:19:ba:1a:
         6e:2f:6a:01:5d:d8:93:74:6d:fe:6a:11:86:c5:fc:30:0f:75:
         21:a7:de:e8:cb:a7:6e:a9:8e:9d:53:c6:28:3a:f2:c0:d1:ba:
         f0:05:71:63:98:6d:ec:86:73:cd:f6:96:dc:ae:22:c7:55:19:
         be:9e:65:78:ca:c3:6b:08:59:44:8f:25:23:e7:8b:cb:eb:fa:
         97:87:9f:6b:af:cf:ae:5f:0a:87:a0:02:b0:4d:7b:53:e3:d1:
         3a:01:f4:ad:97:5d:56:a1:2c:9b:24:8e:8a:0b:45:4c:64:89:
         e6:57:3a:a0:ca:ac:91:30:8e:6d:7d:df:b3:06:f5:dd:97:b4:
         f0:e8:85:a3:e5:c3:70:32:2e:4a:5d:17:7d:e0:b6:73:5b:b1:
         ac:11:d5:96:b4:53:1d:19:e2:13:03:e5:e6:23:f6:f5:ec:6c:
         fc:4c:5a:82:9f:8e:3e:39:b8:13:7a:6e:07:73:a2:03:7b:71:
         e4:32:eb:93:c2:bd:c2:08:f3:2f:b6:83:5b:3b:41:fc:56:5a:
         cc:fd:67:1f:60:6e:f9:21:af:03:3b:aa:9c:50:d0:ec:aa:dd:
         e8:28:00:0a:a6:f1:93:83:b8:d0:2f:67:50:f1:b9:50:e0:7f:
         99:41:29:73
-----BEGIN CERTIFICATE-----
MIID6TCCAtGgAwIBAgIEEAAA0zANBgkqhkiG9w0BAQsFADBEMQswCQYDVQQGEwJE
RTEPMA0GA1UECAwGSGVzc2VuMRQwEgYDVQQKDAtwcml2YWN5aWRlYTEOMAwGA1UE
AwwFQ0EwMDEwHhcNMjIwMjI1MTUwNTMxWhcNMjMwMjI1MTUwNTMxWjAXMRUwEwYD
VQQDDAxjbj1jb3JuZWxpdXMwggEiMA0GCSqGSIb3DQEBAQUAA4IBDwAwggEKAoIB
AQDOpDkwJXPkneY3O4VZg++jbvmDufdIsAvV6AVAYc3FWrwRL1tO0E+40Oh/Baut
JAuQ1D9g7BW2Tr6O2Sar8i9/NcKmobxSOtmI+7P6cSC5UQ74rw0Wvr1duasw1axr
PLzuKEpPb9QJFfeYr3fbNhUuHu4P0Nlgrdu5xD/GJTL54+lQuOyEoMTSnP3OJYCF
fjqtTKdAGwpYGJ/CXjbh0UTpRrbctCii7O0C9yV54YaOaWdS7oIht4QtzOeoOVd9
ox7pUGN3Kavkpf/c7kxLXggrYggtdbgmbJPr9UXqzYNYUxVG5mtDwS/ZiEs91f0M
/1FS7VT7Jy1Z70xQznHN61qZAgMBAAGjggEOMIIBCjALBgNVHQ8EBAMCBaAwCQYD
VR0TBAIwADARBglghkgBhvhCAQEEBAMCBkAwMwYJYIZIAYb4QgENBCYWJE9wZW5T
U0wgR2VuZXJhdGVkIFNlcnZlciBDZXJ0aWZpY2F0ZTAdBgNVHQ4EFgQUDtW6Tn2S
VxX9YU40W+li0CAcfQgwdAYDVR0jBG0wa4AU9KfAzJFGr2TzkfIn+Miyb4qHMnOh
SKRGMEQxCzAJBgNVBAYTAkRFMQ8wDQYDVQQIDAZIZXNzZW4xFDASBgNVBAoMC3By
aXZhY3lpZGVhMQ4wDAYDVQQDDAVDQTAwMYIJAPvI66yDzRIHMBMGA1UdJQQMMAoG
CCsGAQUFBwMBMA0GCSqGSIb3DQEBCwUAA4IBAQCruEoEQ4TfRynDWsFxUuUZuhpu
L2oBXdiTdG3+ahGGxfwwD3Uhp97oy6duqY6dU8YoOvLA0brwBXFjmG3shnPN9pbc
riLHVRm+nmV4ysNrCFlEjyUj54vL6/qXh59rr8+uXwqHoAKwTXtT49E6AfStl11W
oSybJI6KC0VMZInmVzqgyqyRMI5tfd+zBvXdl7Tw6IWj5cNwMi5KXRd94LZzW7Gs
EdWWtFMdGeITA+XmI/b17Gz8TFqCn44+ObgTem4Hc6IDe3HkMuuTwr3CCPMvtoNb
O0H8VlrM/WcfYG75Ia8DO6qcUNDsqt3oKAAKpvGTg7jQL2dQ8blQ4H+ZQSlz
-----END CERTIFICATE-----
