Certificate:
    Data:
        Version: 3 (0x2)
        Serial Number: 268435672 (0x100000d8)
        Signature Algorithm: sha256WithRSAEncryption
        Issuer: C=DE, ST=Hessen, O=privacyidea, CN=CA001
        Validity
            Not Before: Feb 25 15:07:09 2022 GMT
            Not After : Feb 25 15:07:09 2023 GMT
        Subject: OU=realm1, CN=cornelius/emailAddress=user@localhost.localdomain
        Subject Public Key Info:
            Public Key Algorithm: rsaEncryption
                RSA Public-Key: (2048 bit)
                Modulus:
                    00:e7:da:60:20:0f:00:21:49:5b:9b:40:8b:00:61:
                    99:1b:86:0b:de:b7:1e:95:70:03:81:c4:9c:74:82:
                    6e:65:17:b1:f7:fd:8a:90:b0:a3:b6:05:bd:0d:41:
                    af:9e:a1:9b:5e:3f:dd:5d:c0:79:4c:1f:7e:c4:86:
                    0c:13:a5:fb:40:93:28:5a:20:e0:99:88:48:39:13:
                    bc:7b:01:bc:83:87:e9:f2:07:b5:96:96:7f:23:8a:
                    0c:9c:95:df:43:90:38:e5:78:15:c7:45:ea:9d:2b:
                    aa:05:ec:ff:2a:0f:6f:83:76:11:54:ee:27:ee:b6:
                    d9:c3:fb:5d:6b:8d:c2:27:11:ec:e9:e6:c8:5f:80:
                    e2:bd:04:09:16:77:65:c0:ea:c8:00:e7:71:d7:25:
                    d1:29:e7:d4:a0:69:85:fa:f7:7c:2c:f5:fe:47:a6:
                    f6:05:60:6e:24:f1:0f:d2:04:b1:20:73:83:37:16:
                    c7:ea:9c:3f:47:2e:30:8a:09:22:9c:ef:82:94:8f:
                    dd:29:a0:b7:a1:e7:cd:4a:da:fb:38:76:98:85:e8:
                    22:ea:64:bf:4a:0d:a0:d5:4c:4e:8a:91:91:b5:68:
                    c1:db:cc:70:4d:fa:c0:97:27:3c:e0:c4:1e:1a:8e:
                    ab:e9:c4:cf:1f:ea:3c:9a:2c:cd:1a:2a:0d:22:76:
                    31:33
                Exponent: 65537 (0x10001)
        X509v3 extensions:
            X509v3 Key Usage: 
                Digital Signature, Key Encipherment
            X509v3 Basic Constraints: 
                CA:FALSE
            Netscape Cert Type: 
                SSL Server
            Netscape Comment: 
                OpenSSL Generated Server Certificate
            X509v3 Subject Key Identifier: 
                19:14:5D:40:A5:95:5B:22:AA:1E:C4:2D:F4:AA:6E:A5:8D:3A:C5:CB
            X509v3 Authority Key Identifier: 
                keyid:F4:A7:C0:CC:91:46:AF:64:F3:91:F2:27:F8:C8:B2:6F:8A:87:32:73
                DirName:/C=DE/ST=Hessen/O=privacyidea/CN=CA001
                serial:FB:C8:EB:AC:83:CD:12:07

            X509v3 Extended Key Usage: 
                TLS Web Server Authentication
    Signature Algorithm: sha256WithRSAEncryption
         4f:f0:f1:32:65:7b:44:5a:03:11:fd:9b:17:07:b8:29:25:e3:
         71:7d:3d:69:58:5f:de:b6:73:8a:7b:f4:49:c5:bc:29:fe:75:
         d9:2e:df:82:d7:df:e6:19:81:d4:b6:4f:f0:55:c8:a2:a6:6f:
         cb:d1:7a:ed:28:09:c6:b2:ac:e2:00:dd:8d:5b:33:8d:b1:f4:
         77:b8:04:36:f3:cb:bb:c6:80:8c:1a:7f:86:0d:e5:6b:6b:07:
         46:5e:7e:d7:90:ed:f5:21:9d:b4:91:e8:cf:54:f5:b6:54:f2:
         1a:57:85:06:40:f5:ed:7f:42:89:d7:9c:17:18:32:6a:44:31:
         03:e7:7b:72:20:96:34:bf:58:35:cb:9d:23:fc:7f:8e:c8:6f:
         40:2d:8e:8b:14:b3:58:8c:fb:48:6a:02:60:80:db:7b:59:8c:
         26:9c:9c:64:35:46:6b:f5:aa:5f:86:51:fe:2e:f5:a9:1a:4e:
         2c:d1:36:07:fa:e3:ae:e6:69:5a:52:a5:ae:90:fb:f8:40:df:
         6f:4e:c3:d1:40:b2:d3:77:e5:9f:6f:66:dc:2c:d5:72:7d:1a:
         6e:b0:ba:ad:ba:44:1a:9c:06:af:63:a5:38:68:bc:65:1e:f1:
         d6:bc:ea:86:fb:b8:e5:1f:46:28:d0:1d:7b:e0:a7:48:a4:fc:
         4b:0b:1f:84
-----BEGIN CERTIFICATE-----
MIIEIjCCAwqgAwIBAgIEEAAA2DANBgkqhkiG9w0BAQsFADBEMQswCQYDVQQGEwJE
RTEPMA0GA1UECAwGSGVzc2VuMRQwEgYDVQQKDAtwcml2YWN5aWRlYTEOMAwGA1UE
AwwFQ0EwMDEwHhcNMjIwMjI1MTUwNzA5WhcNMjMwMjI1MTUwNzA5WjBQMQ8wDQYD
VQQLDAZyZWFsbTExEjAQBgNVBAMMCWNvcm5lbGl1czEpMCcGCSqGSIb3DQEJARYa
dXNlckBsb2NhbGhvc3QubG9jYWxkb21haW4wggEiMA0GCSqGSIb3DQEBAQUAA4IB
DwAwggEKAoIBAQDn2mAgDwAhSVubQIsAYZkbhgvetx6VcAOBxJx0gm5lF7H3/YqQ
sKO2Bb0NQa+eoZteP91dwHlMH37EhgwTpftAkyhaIOCZiEg5E7x7AbyDh+nyB7WW
ln8jigycld9DkDjleBXHReqdK6oF7P8qD2+DdhFU7ifuttnD+11rjcInEezp5shf
gOK9BAkWd2XA6sgA53HXJdEp59SgaYX693ws9f5HpvYFYG4k8Q/SBLEgc4M3Fsfq
nD9HLjCKCSKc74KUj90poLeh581K2vs4dpiF6CLqZL9KDaDVTE6KkZG1aMHbzHBN
+sCXJzzgxB4ajqvpxM8f6jyaLM0aKg0idjEzAgMBAAGjggEOMIIBCjALBgNVHQ8E
BAMCBaAwCQYDVR0TBAIwADARBglghkgBhvhCAQEEBAMCBkAwMwYJYIZIAYb4QgEN
BCYWJE9wZW5TU0wgR2VuZXJhdGVkIFNlcnZlciBDZXJ0aWZpY2F0ZTAdBgNVHQ4E
FgQUGRRdQKWVWyKqHsQt9KpupY06xcswdAYDVR0jBG0wa4AU9KfAzJFGr2TzkfIn
+Miyb4qHMnOhSKRGMEQxCzAJBgNVBAYTAkRFMQ8wDQYDVQQIDAZIZXNzZW4xFDAS
BgNVBAoMC3ByaXZhY3lpZGVhMQ4wDAYDVQQDDAVDQTAwMYIJAPvI66yDzRIHMBMG
A1UdJQQMMAoGCCsGAQUFBwMBMA0GCSqGSIb3DQEBCwUAA4IBAQBP8PEyZXtEWgMR
/ZsXB7gpJeNxfT1pWF/etnOKe/RJxbwp/nXZLt+C19/mGYHUtk/wVciipm/L0Xrt
KAnGsqziAN2NWzONsfR3uAQ288u7xoCMGn+GDeVrawdGXn7XkO31IZ20kejPVPW2
VPIaV4UGQPXtf0KJ15wXGDJqRDED53tyIJY0v1g1y50j/H+OyG9ALY6LFLNYjPtI
agJggNt7WYwmnJxkNUZr9apfhlH+LvWpGk4s0TYH+uOu5mlaUqWukPv4QN9vTsPR
QLLTd+Wfb2bcLNVyfRpusLqtukQanAavY6U4aLxlHvHWvOqG+7jlH0Yo0B174KdI
pPxLCx+E
-----END CERTIFICATE-----
