Certificate:
    Data:
        Version: 3 (0x2)
        Serial Number: 268435674 (0x100000da)
        Signature Algorithm: sha256WithRSAEncryption
        Issuer: C=DE, ST=Hessen, O=privacyidea, CN=CA001
        Validity
            Not Before: Feb 25 15:08:08 2022 GMT
            Not After : Feb 25 15:08:08 2023 GMT
        Subject: OU=realm1, CN=cornelius/emailAddress=user@localhost.localdomain
        Subject Public Key Info:
            Public Key Algorithm: rsaEncryption
                RSA Public-Key: (2048 bit)
                Modulus:
                    00:d2:79:38:a5:dc:21:e3:a3:55:34:51:bb:a9:5c:
                    b5:e8:91:a8:79:40:eb:c7:ef:fc:3b:1b:09:68:36:
                    9f:33:84:fd:a4:df:15:b8:ef:f9:4a:38:95:17:37:
                    1f:0b:3b:a9:09:e9:a6:61:a5:a9:3a:84:75:07:6d:
                    63:57:2a:eb:0f:5b:3b:05:c9:5e:a4:88:c5:46:0a:
                    1e:17:72:17:cc:97:73:79:e0:17:a9:8b:82:f4:30:
                    78:63:a7:ed:b9:32:b5:6f:94:6e:af:2f:5b:42:85:
                    5d:f8:41:46:90:ce:eb:0e:69:46:dd:cc:dd:f3:49:
                    65:27:55:9c:90:1e:ab:61:bd:7b:86:ca:66:7c:48:
                    5f:ec:c8:60:eb:ec:0e:5f:1e:29:c7:95:8b:4f:8b:
                    47:a9:67:88:12:7c:9c:70:a0:6b:a2:3b:28:d8:42:
                    2b:ba:4e:ee:99:cb:86:41:3d:ba:05:1b:04:68:5a:
                    b1:e8:ad:60:44:2c:24:dc:69:33:1d:b3:02:3c:b2:
                    ef:46:69:a1:28:64:06:73:a8:bc:ab:11:10:24:97:
                    5a:82:58:06:b8:7d:bc:33:07:c4:45:0d:4d:c6:66:
                    73:3d:c0:1e:29:4b:6f:40:80:85:13:58:af:46:ee:
                    8b:45:74:a2:40:2d:34:6b:37:fd:41:6a:ff:e2:cd:
                    e1:8b
                Exponent: 65537 (0x10001)
        X509v3 extensions:
            X509v3 Key Usage: 
                Digital Signature, Key Encipherment
            X509v3 Basic Constraints: 
                CA:FALSE
            Netscape Cert Type: 
                SSL Server
            Netscape Comment: 
                OpenSSL Generated Server Certificate
            X509v3 Subject Key Identifier: 
                E2:C1:9F:FE:C6:11:6D:A6:AA:1B:4C:B2:EF:D0:E4:5E:3D:C4:F5:11
            X509v3 Authority Key Identifier: 
                keyid:F4:A7:C0:CC:91:46:AF:64:F3:91:F2:27:F8:C8:B2:6F:8A:87:32:73
                DirName:/C=DE/ST=Hessen/O=privacyidea/CN=CA001
                serial:FB:C8:EB:AC:83:CD:12:07

            X509v3 Extended Key Usage: 
                TLS Web Server Authentication
    Signature Algorithm: sha256WithRSAEncryption
         7e:ed:d0:ef:16:4d:12:ca:a5:a1:d5:a2:9a:fb:76:b5:22:3b:
         c8:cc:e0:03:87:0c:54:9f:55:51:af:35:f6:7a:3c:19:db:76:
         b3:57:10:43:81:3a:5c:4b:26:be:ad:d4:9e:71:7c:ba:2f:c4:
         ba:67:67:f6:eb:1b:06:be:99:e1:1f:12:c3:0a:ef:90:2a:06:
         82:c9:11:97:e6:8a:1e:76:05:92:f2:e6:14:a5:85:24:15:64:
         7a:5c:d6:de:54:3a:ec:46:b8:bc:e3:da:0f:be:a2:e2:af:c5:
         ea:2c:9c:ca:09:71:af:ca:f8:08:6c:12:b2:ba:7d:57:ef:54:
         34:b9:51:83:2f:1c:d7:29:d3:18:07:8f:4f:af:14:2c:f3:e8:
         d0:a3:ac:57:2c:a5:75:a6:b7:7f:fa:9e:5e:1b:3a:d2:f9:bb:
         70:a4:fa:41:ca:d0:0e:33:40:d3:b2:ed:d7:05:e8:6f:20:c6:
         40:c7:fe:40:7a:97:f8:02:4d:5d:9c:15:2a:4f:d2:28:28:76:
         d9:28:91:d0:4b:a4:31:01:3f:80:d6:88:ac:de:d8:12:da:40:
         df:90:86:ee:0c:8c:14:8f:0d:a0:b1:cd:7a:5d:25:5c:69:aa:
         ac:9c:c8:09:96:dc:cf:67:09:92:8b:7c:9d:1b:39:61:7d:8c:
         4b:d4:19:bd
-----BEGIN CERTIFICATE-----
MIIEIjCCAwqgAwIBAgIEEAAA2jANBgkqhkiG9w0BAQsFADBEMQswCQYDVQQGEwJE
RTEPMA0GA1UECAwGSGVzc2VuMRQwEgYDVQQKDAtwcml2YWN5aWRlYTEOMAwGA1UE
AwwFQ0EwMDEwHhcNMjIwMjI1MTUwODA4WhcNMjMwMjI1MTUwODA4WjBQMQ8wDQYD
VQQLDAZyZWFsbTExEjAQBgNVBAMMCWNvcm5lbGl1czEpMCcGCSqGSIb3DQEJARYa
dXNlckBsb2NhbGhvc3QubG9jYWxkb21haW4wggEiMA0GCSqGSIb3DQEBAQUAA4IB
DwAwggEKAoIBAQDSeTil3CHjo1U0UbupXLXokah5QOvH7/w7GwloNp8zhP2k3xW4
7/lKOJUXNx8LO6kJ6aZhpak6hHUHbWNXKusPWzsFyV6kiMVGCh4XchfMl3N54Bep
i4L0MHhjp+25MrVvlG6vL1tChV34QUaQzusOaUbdzN3zSWUnVZyQHqthvXuGymZ8
SF/syGDr7A5fHinHlYtPi0epZ4gSfJxwoGuiOyjYQiu6Tu6Zy4ZBPboFGwRoWrHo
rWBELCTcaTMdswI8su9GaaEoZAZzqLyrERAkl1qCWAa4fbwzB8RFDU3GZnM9wB4p
S29AgIUTWK9G7otFdKJALTRrN/1Bav/izeGLAgMBAAGjggEOMIIBCjALBgNVHQ8E
BAMCBaAwCQYDVR0TBAIwADARBglghkgBhvhCAQEEBAMCBkAwMwYJYIZIAYb4QgEN
BCYWJE9wZW5TU0wgR2VuZXJhdGVkIFNlcnZlciBDZXJ0aWZpY2F0ZTAdBgNVHQ4E
FgQU4sGf/sYRbaaqG0yy79DkXj3E9REwdAYDVR0jBG0wa4AU9KfAzJFGr2TzkfIn
+Miyb4qHMnOhSKRGMEQxCzAJBgNVBAYTAkRFMQ8wDQYDVQQIDAZIZXNzZW4xFDAS
BgNVBAoMC3ByaXZhY3lpZGVhMQ4wDAYDVQQDDAVDQTAwMYIJAPvI66yDzRIHMBMG
A1UdJQQMMAoGCCsGAQUFBwMBMA0GCSqGSIb3DQEBCwUAA4IBAQB+7dDvFk0SyqWh
1aKa+3a1IjvIzOADhwxUn1VRrzX2ejwZ23azVxBDgTpcSya+rdSecXy6L8S6Z2f2
6xsGvpnhHxLDCu+QKgaCyRGX5ooedgWS8uYUpYUkFWR6XNbeVDrsRri849oPvqLi
r8XqLJzKCXGvyvgIbBKyun1X71Q0uVGDLxzXKdMYB49PrxQs8+jQo6xXLKV1prd/
+p5eGzrS+btwpPpBytAOM0DTsu3XBehvIMZAx/5Aepf4Ak1dnBUqT9IoKHbZKJHQ
S6QxAT+A1ois3tgS2kDfkIbuDIwUjw2gsc16XSVcaaqsnMgJltzPZwmSi3ydGzlh
fYxL1Bm9
-----END CERTIFICATE-----
