Certificate:
    Data:
        Version: 3 (0x2)
        Serial Number: 268435664 (0x100000d0)
        Signature Algorithm: sha256WithRSAEncryption
        Issuer: C=DE, ST=Hessen, O=privacyidea, CN=CA001
        Validity
            Not Before: Feb 25 14:58:41 2022 GMT
            Not After : Feb 25 14:58:41 2023 GMT
        Subject: CN=cn=cornelius
        Subject Public Key Info:
            Public Key Algorithm: rsaEncryption
                RSA Public-Key: (2048 bit)
                Modulus:
                    00:ce:a4:39:30:25:73:e4:9d:e6:37:3b:85:59:83:
                    ef:a3:6e:f9:83:b9:f7:48:b0:0b:d5:e8:05:40:61:
                    cd:c5:5a:bc:11:2f:5b:4e:d0:4f:b8:d0:e8:7f:05:
                    ab:ad:24:0b:90:d4:3f:60:ec:15:b6:4e:be:8e:d9:
                    26:ab:f2:2f:7f:35:c2:a6:a1:bc:52:3a:d9:88:fb:
                    b3:fa:71:20:b9:51:0e:f8:af:0d:16:be:bd:5d:b9:
                    ab:30:d5:ac:6b:3c:bc:ee:28:4a:4f:6f:d4:09:15:
                    f7:98:af:77:db:36:15:2e:1e:ee:0f:d0:d9:60:ad:
                    db:b9:c4:3f:c6:25:32:f9:e3:e9:50:b8:ec:84:a0:
                    c4:d2:9c:fd:ce:25:80:85:7e:3a:ad:4c:a7:40:1b:
                    0a:58:18:9f:c2:5e:36:e1:d1:44:e9:46:b6:dc:b4:
                    28:a2:ec:ed:02:f7:25:79:e1:86:8e:69:67:52:ee:
                    82:21:b7:84:2d:cc:e7:a8:39:57:7d:a3:1e:e9:50:
                    63:77:29:ab:e4:a5:ff:dc:ee:4c:4b:5e:08:2b:62:
                    08:2d:75:b8:26:6c:93:eb:f5:45:ea:cd:83:58:53:
                    15:46:e6:6b:43:c1:2f:d9:88:4b:3d:d5:fd:0c:ff:
                    51:52:ed:54:fb:27:2d:59:ef:4c:50:ce:71:cd:eb:
                    5a:99
                Exponent: 65537 (0x10001)
        X509v3 extensions:
            X509v3 Key Usage: 
                Digital Signature, Key Encipherment
            X509v3 Basic Constraints: 
                CA:FALSE
            Netscape Cert Type: 
                SSL Server
            Netscape Comment: 
                OpenSSL Generated Server Certificate
            X509v3 Subject Key Identifier: 
                0E:D5:BA:4E:7D:92:57:15:FD:61:4E:34:5B:E9:62:D0:20:1C:7D:08
            X509v3 Authority Key Identifier: 
                keyid:F4:A7:C0:CC:91:46:AF:64:F3:91:F2:27:F8:C8:B2:6F:8A:87:32:73
                DirName:/C=DE/ST=Hessen/O=privacyidea/CN=CA001
                serial:FB:C8:EB:AC:83:CD:12:07

            X509v3 Extended Key Usage: 
                TLS Web Server Authentication
    Signature Algorithm: sha256WithRSAEncryption
         73:5e:3b:60:3e:6d:f9:5d:31:56:7d:45:0e:8c:1b:03:8b:c8:
         1d:b4:92:c7:d4:f5:4d:24:bc:38:1f:24:87:34:e3:e1:cc:3c:
         36:df:6f:bd:5b:42:a2:73:8b:87:76:f0:a7:72:2b:8f:cb:51:
         1e:4b:27:d9:e4:32:21:60:ff:75:d9:db:ed:c3:70:6e:58:ca:
         8b:6a:f4:94:34:2c:32:6f:c1:bf:f6:90:35:04:b2:2f:d1:88:
         dc:d8:69:e8:f0:7e:2c:38:27:e6:5f:47:50:18:fd:62:ae:d6:
         58:1d:3b:f1:ec:04:aa:ec:d7:1e:1d:e3:9a:08:02:a2:f5:6e:
         73:f9:7d:68:55:d2:13:62:ef:4c:df:51:04:5b:f7:d8:42:dd:
         6b:e2:bd:cf:5e:7c:69:f7:04:21:d0:dd:f6:2c:bb:c2:a3:fc:
         f6:88:95:fb:67:1c:17:25:99:05:06:98:55:69:fe:dd:bd:cc:
         6e:8e:04:da:4b:63:28:9f:60:d3:80:cd:5c:45:29:4a:4e:99:
         f4:e2:8b:64:80:56:8a:7d:b0:bf:8e:04:b4:55:02:93:77:48:
         aa:9c:14:6b:6b:d1:b7:bf:ab:e0:e4:48:30:63:ab:a9:2b:db:
         41:1c:7d:64:9e:ec:d1:96:bf:c6:0a:40:c9:68:3e:e2:31:0c:
         b7:05:82:fd
-----BEGIN CERTIFICATE-----
MIID6TCCAtGgAwIBAgIEEAAA0DANBgkqhkiG9w0BAQsFADBEMQswCQYDVQQGEwJE
RTEPMA0GA1UECAwGSGVzc2VuMRQwEgYDVQQKDAtwcml2YWN5aWRlYTEOMAwGA1UE
AwwFQ0EwMDEwHhcNMjIwMjI1MTQ1ODQxWhcNMjMwMjI1MTQ1ODQxWjAXMRUwEwYD
VQQDDAxjbj1jb3JuZWxpdXMwggEiMA0GCSqGSIb3DQEBAQUAA4IBDwAwggEKAoIB
AQDOpDkwJXPkneY3O4VZg++jbvmDufdIsAvV6AVAYc3FWrwRL1tO0E+40Oh/Baut
JAuQ1D9g7BW2Tr6O2Sar8i9/NcKmobxSOtmI+7P6cSC5UQ74rw0Wvr1duasw1axr
PLzuKEpPb9QJFfeYr3fbNhUuHu4P0Nlgrdu5xD/GJTL54+lQuOyEoMTSnP3OJYCF
fjqtTKdAGwpYGJ/CXjbh0UTpRrbctCii7O0C9yV54YaOaWdS7oIht4QtzOeoOVd9
ox7pUGN3Kavkpf/c7kxLXggrYggtdbgmbJPr9UXqzYNYUxVG5mtDwS/ZiEs91f0M
/1FS7VT7Jy1Z70xQznHN61qZAgMBAAGjggEOMIIBCjALBgNVHQ8EBAMCBaAwCQYD
VR0TBAIwADARBglghkgBhvhCAQEEBAMCBkAwMwYJYIZIAYb4QgENBCYWJE9wZW5T
U0wgR2VuZXJhdGVkIFNlcnZlciBDZXJ0aWZpY2F0ZTAdBgNVHQ4EFgQUDtW6Tn2S
VxX9YU40W+li0CAcfQgwdAYDVR0jBG0wa4AU9KfAzJFGr2TzkfIn+Miyb4qHMnOh
SKRGMEQxCzAJBgNVBAYTAkRFMQ8wDQYDVQQIDAZIZXNzZW4xFDASBgNVBAoMC3By
aXZhY3lpZGVhMQ4wDAYDVQQDDAVDQTAwMYIJAPvI66yDzRIHMBMGA1UdJQQMMAoG
CCsGAQUFBwMBMA0GCSqGSIb3DQEBCwUAA4IBAQBzXjtgPm35XTFWfUUOjBsDi8gd
tJLH1PVNJLw4HySHNOPhzDw232+9W0Kic4uHdvCnciuPy1EeSyfZ5DIhYP912dvt
w3BuWMqLavSUNCwyb8G/9pA1BLIv0Yjc2Gno8H4sOCfmX0dQGP1irtZYHTvx7ASq
7NceHeOaCAKi9W5z+X1oVdITYu9M31EEW/fYQt1r4r3PXnxp9wQh0N32LLvCo/z2
iJX7ZxwXJZkFBphVaf7dvcxujgTaS2Mon2DTgM1cRSlKTpn04otkgFaKfbC/jgS0
VQKTd0iqnBRra9G3v6vg5EgwY6upK9tBHH1knuzRlr/GCkDJaD7iMQy3BYL9
-----END CERTIFICATE-----
