Certificate:
    Data:
        Version: 3 (0x2)
        Serial Number: 268435670 (0x100000d6)
        Signature Algorithm: sha256WithRSAEncryption
        Issuer: C=DE, ST=Hessen, O=privacyidea, CN=CA001
        Validity
            Not Before: Feb 25 15:06:49 2022 GMT
            Not After : Feb 25 15:06:49 2023 GMT
        Subject: CN=cn=cornelius
        Subject Public Key Info:
            Public Key Algorithm: rsaEncryption
                RSA Public-Key: (2048 bit)
                Modulus:
                    00:ce:a4:39:30:25:73:e4:9d:e6:37:3b:85:59:83:
                    ef:a3:6e:f9:83:b9:f7:48:b0:0b:d5:e8:05:40:61:
                    cd:c5:5a:bc:11:2f:5b:4e:d0:4f:b8:d0:e8:7f:05:
                    ab:ad:24:0b:90:d4:3f:60:ec:15:b6:4e:be:8e:d9:
                    26:ab:f2:2f:7f:35:c2:a6:a1:bc:52:3a:d9:88:fb:
                    b3:fa:71:20:b9:51:0e:f8:af:0d:16:be:bd:5d:b9:
                    ab:30:d5:ac:6b:3c:bc:ee:28:4a:4f:6f:d4:09:15:
                    f7:98:af:77:db:36:15:2e:1e:ee:0f:d0:d9:60:ad:
                    db:b9:c4:3f:c6:25:32:f9:e3:e9:50:b8:ec:84:a0:
                    c4:d2:9c:fd:ce:25:80:85:7e:3a:ad:4c:a7:40:1b:
                    0a:58:18:9f:c2:5e:36:e1:d1:44:e9:46:b6:dc:b4:
                    28:a2:ec:ed:02:f7:25:79:e1:86:8e:69:67:52:ee:
                    82:21:b7:84:2d:cc:e7:a8:39:57:7d:a3:1e:e9:50:
                    63:77:29:ab:e4:a5:ff:dc:ee:4c:4b:5e:08:2b:62:
                    08:2d:75:b8:26:6c:93:eb:f5:45:ea:cd:83:58:53:
                    15:46:e6:6b:43:c1:2f:d9:88:4b:3d:d5:fd:0c:ff:
                    51:52:ed:54:fb:27:2d:59:ef:4c:50:ce:71:cd:eb:
                    5a:99
                Exponent: 65537 (0x10001)
        X509v3 extensions:
            X509v3 Key Usage: 
                Digital Signature, Key Encipherment
            X509v3 Basic Constraints: 
                CA:FALSE
            Netscape Cert Type: 
                SSL Server
            Netscape Comment: 
                OpenSSL Generated Server Certificate
            X509v3 Subject Key Identifier: 
                0E:D5:BA:4E:7D:92:57:15:FD:61:4E:34:5B:E9:62:D0:20:1C:7D:08
            X509v3 Authority Key Identifier: 
                keyid:F4:A7:C0:CC:91:46:AF:64:F3:91:F2:27:F8:C8:B2:6F:8A:87:32:73
                DirName:/C=DE/ST=Hessen/O=privacyidea/CN=CA001
                serial:FB:C8:EB:AC:83:CD:12:07

            X509v3 Extended Key Usage: 
                TLS Web Server Authentication
    Signature Algorithm: sha256WithRSAEncryption
         53:fb:a1:26:72:3d:ef:56:ff:9c:cc:a0:65:4f:9a:ba:f3:4e:
         a3:92:c0:6f:20:8d:db:e8:8f:5c:6d:ed:51:c6:d5:2e:ff:6d:
         66:8c:3d:e1:a7:ce:38:a2:74:7e:ad:02:e1:55:c8:6e:c1:a6:
         5d:64:98:ae:d7:fa:0e:9e:30:93:c7:2b:43:14:9f:77:e6:13:
         83:ac:31:b8:60:9b:ea:b7:79:0f:73:6e:ae:5b:64:11:5a:b8:
         92:71:12:09:e4:7a:69:3c:e3:aa:f2:8a:c5:af:de:b2:80:4a:
         c8:f5:e7:cf:55:cd:e7:f6:e3:49:c1:82:64:ab:06:66:59:be:
         bd:77:0e:c3:c4:21:22:06:89:74:68:83:54:6d:49:a8:c9:bc:
         5d:aa:7b:2f:ea:06:7c:53:ef:80:41:db:c5:75:6d:cc:77:6f:
         ea:d7:71:b9:0d:56:2c:be:c3:a4:75:a3:2e:c9:84:30:7b:1e:
         3d:7e:e4:f2:60:e7:da:e8:5a:43:9e:73:f1:0f:f8:7c:42:e4:
         d4:0e:f0:b3:7f:ac:ad:06:25:b9:c0:a7:89:87:42:1c:23:36:
         27:a0:da:e3:20:31:88:b1:ea:46:2a:a0:da:a3:e8:35:fa:97:
         38:5c:85:8c:b5:64:89:5d:10:80:77:aa:1d:30:68:cb:68:2e:
         c5:d5:60:d3
-----BEGIN CERTIFICATE-----
MIID6TCCAtGgAwIBAgIEEAAA1jANBgkqhkiG9w0BAQsFADBEMQswCQYDVQQGEwJE
RTEPMA0GA1UECAwGSGVzc2VuMRQwEgYDVQQKDAtwcml2YWN5aWRlYTEOMAwGA1UE
AwwFQ0EwMDEwHhcNMjIwMjI1MTUwNjQ5WhcNMjMwMjI1MTUwNjQ5WjAXMRUwEwYD
VQQDDAxjbj1jb3JuZWxpdXMwggEiMA0GCSqGSIb3DQEBAQUAA4IBDwAwggEKAoIB
AQDOpDkwJXPkneY3O4VZg++jbvmDufdIsAvV6AVAYc3FWrwRL1tO0E+40Oh/Baut
JAuQ1D9g7BW2Tr6O2Sar8i9/NcKmobxSOtmI+7P6cSC5UQ74rw0Wvr1duasw1axr
PLzuKEpPb9QJFfeYr3fbNhUuHu4P0Nlgrdu5xD/GJTL54+lQuOyEoMTSnP3OJYCF
fjqtTKdAGwpYGJ/CXjbh0UTpRrbctCii7O0C9yV54YaOaWdS7oIht4QtzOeoOVd9
ox7pUGN3Kavkpf/c7kxLXggrYggtdbgmbJPr9UXqzYNYUxVG5mtDwS/ZiEs91f0M
/1FS7VT7Jy1Z70xQznHN61qZAgMBAAGjggEOMIIBCjALBgNVHQ8EBAMCBaAwCQYD
VR0TBAIwADARBglghkgBhvhCAQEEBAMCBkAwMwYJYIZIAYb4QgENBCYWJE9wZW5T
U0wgR2VuZXJhdGVkIFNlcnZlciBDZXJ0aWZpY2F0ZTAdBgNVHQ4EFgQUDtW6Tn2S
VxX9YU40W+li0CAcfQgwdAYDVR0jBG0wa4AU9KfAzJFGr2TzkfIn+Miyb4qHMnOh
SKRGMEQxCzAJBgNVBAYTAkRFMQ8wDQYDVQQIDAZIZXNzZW4xFDASBgNVBAoMC3By
aXZhY3lpZGVhMQ4wDAYDVQQDDAVDQTAwMYIJAPvI66yDzRIHMBMGA1UdJQQMMAoG
CCsGAQUFBwMBMA0GCSqGSIb3DQEBCwUAA4IBAQBT+6Emcj3vVv+czKBlT5q6806j
ksBvII3b6I9cbe1RxtUu/21mjD3hp844onR+rQLhVchuwaZdZJiu1/oOnjCTxytD
FJ935hODrDG4YJvqt3kPc26uW2QRWriScRIJ5HppPOOq8orFr96ygErI9efPVc3n
9uNJwYJkqwZmWb69dw7DxCEiBol0aINUbUmoybxdqnsv6gZ8U++AQdvFdW3Md2/q
13G5DVYsvsOkdaMuyYQwex49fuTyYOfa6FpDnnPxD/h8QuTUDvCzf6ytBiW5wKeJ
h0IcIzYnoNrjIDGIsepGKqDao+g1+pc4XIWMtWSJXRCAd6odMGjLaC7F1WDT
-----END CERTIFICATE-----
