Certificate:
    Data:
        Version: 3 (0x2)
        Serial Number: 268435666 (0x100000d2)
        Signature Algorithm: sha256WithRSAEncryption
        Issuer: C=DE, ST=Hessen, O=privacyidea, CN=CA001
        Validity
            Not Before: Feb 25 14:59:05 2022 GMT
            Not After : Feb 25 14:59:05 2023 GMT
        Subject: OU=realm1, CN=cornelius/emailAddress=user@localhost.localdomain
        Subject Public Key Info:
            Public Key Algorithm: rsaEncryption
                RSA Public-Key: (2048 bit)
                Modulus:
                    00:a5:91:8b:22:52:bf:55:97:f9:e9:a5:4f:e5:ec:
                    45:b9:7a:b9:2f:19:88:94:ca:24:36:c8:ab:b9:c6:
                    c3:94:70:d6:a0:93:a1:53:06:d4:81:f6:33:bd:c7:
                    b8:61:2c:dc:39:23:1a:0b:9e:d0:a7:e6:6c:4d:e0:
                    a7:ee:12:ba:50:71:cd:94:53:9d:e4:fd:2e:05:e5:
                    35:36:3a:59:e2:7d:3a:c9:1f:4a:9d:e8:b2:db:e0:
                    81:af:38:cb:13:cd:0e:e5:95:27:aa:ab:5a:1c:1f:
                    56:04:4c:e8:d3:d8:fc:b8:a5:2b:4d:e5:55:54:7b:
                    9b:55:04:ac:8d:4a:ac:9f:64:0f:03:32:73:2e:34:
                    41:97:5f:46:c3:88:22:76:ff:31:3b:56:1a:0c:66:
                    8c:68:38:f3:58:4f:59:ea:a7:18:3d:96:da:6b:39:
                    5c:86:c5:ec:89:52:ff:e7:1e:8a:5e:a5:fa:8c:ac:
                    dc:f3:c6:77:a3:2c:41:58:50:5e:50:9e:5a:42:b8:
                    6e:2d:ff:b2:96:c2:b9:9c:bb:77:20:d4:38:63:5c:
                    a7:a2:36:b5:96:9e:01:89:cb:87:97:ac:83:cb:f7:
                    5d:3f:85:1e:e4:31:fb:11:d7:8f:78:ea:02:b0:ab:
                    1f:18:aa:c4:89:3c:64:62:8d:7c:79:e6:d3:41:b7:
                    e7:bf
                Exponent: 65537 (0x10001)
        X509v3 extensions:
            X509v3 Key Usage: 
                Digital Signature, Key Encipherment
            X509v3 Basic Constraints: 
                CA:FALSE
            Netscape Cert Type: 
                SSL Server
            Netscape Comment: 
                OpenSSL Generated Server Certificate
            X509v3 Subject Key Identifier: 
                3D:2B:BD:32:D5:40:E1:BF:08:25:EE:A6:74:22:83:7C:03:EE:86:C0
            X509v3 Authority Key Identifier: 
                keyid:F4:A7:C0:CC:91:46:AF:64:F3:91:F2:27:F8:C8:B2:6F:8A:87:32:73
                DirName:/C=DE/ST=Hessen/O=privacyidea/CN=CA001
                serial:FB:C8:EB:AC:83:CD:12:07

            X509v3 Extended Key Usage: 
                TLS Web Server Authentication
    Signature Algorithm: sha256WithRSAEncryption
         aa:86:18:07:dc:2a:35:9c:7f:52:43:49:51:1f:e5:0f:18:35:
         fd:be:81:87:89:40:b4:10:c5:3c:6d:25:fa:22:21:a5:d1:05:
         92:da:51:ed:51:c2:91:eb:0e:c8:f0:4a:75:c4:39:5f:b2:cd:
         01:53:16:4a:28:ce:e9:b6:d9:e9:67:76:aa:37:01:e8:cc:da:
         99:a3:bf:11:68:3b:16:7d:17:6f:6a:2b:36:54:d8:15:25:b7:
         ed:71:97:eb:71:d5:c0:45:4f:88:e2:98:8e:2d:34:17:46:5c:
         93:89:24:35:2c:2c:e7:e1:98:11:79:87:0c:8b:01:67:6c:78:
         f4:0d:cf:46:65:3c:78:84:ce:4d:25:08:18:9b:65:59:46:a7:
         a9:ef:b1:6b:73:55:ab:30:b7:fc:ee:43:60:0e:c0:fa:e1:8b:
         ec:a0:45:a4:ca:c9:20:6a:32:c6:6c:9e:99:2b:35:95:dc:21:
         53:c1:90:7c:d3:b8:a8:57:10:11:23:9d:c5:30:e8:ad:b4:e8:
         39:d2:74:10:42:77:fa:2e:61:83:06:4c:70:35:de:15:b3:15:
         17:ad:e8:eb:ac:41:a2:44:f0:77:8b:84:a1:24:18:c5:05:51:
         4f:13:dc:0b:70:9e:5f:d4:b1:d3:b0:7a:be:e1:26:ca:f0:b6:
         9e:b3:1d:e5
-----BEGIN CERTIFICATE-----
MIIEIjCCAwqgAwIBAgIEEAAA0jANBgkqhkiG9w0BAQsFADBEMQswCQYDVQQGEwJE
RTEPMA0GA1UECAwGSGVzc2VuMRQwEgYDVQQKDAtwcml2YWN5aWRlYTEOMAwGA1UE
AwwFQ0EwMDEwHhcNMjIwMjI1MTQ1OTA1WhcNMjMwMjI1MTQ1OTA1WjBQMQ8wDQYD
VQQLDAZyZWFsbTExEjAQBgNVBAMMCWNvcm5lbGl1czEpMCcGCSqGSIb3DQEJARYa
dXNlckBsb2NhbGhvc3QubG9jYWxkb21haW4wggEiMA0GCSqGSIb3DQEBAQUAA4IB
DwAwggEKAoIBAQClkYsiUr9Vl/nppU/l7EW5erkvGYiUyiQ2yKu5xsOUcNagk6FT
BtSB9jO9x7hhLNw5IxoLntCn5mxN4KfuErpQcc2UU53k/S4F5TU2OlnifTrJH0qd
6LLb4IGvOMsTzQ7llSeqq1ocH1YETOjT2Py4pStN5VVUe5tVBKyNSqyfZA8DMnMu
NEGXX0bDiCJ2/zE7VhoMZoxoOPNYT1nqpxg9ltprOVyGxeyJUv/nHopepfqMrNzz
xnejLEFYUF5QnlpCuG4t/7KWwrmcu3cg1DhjXKeiNrWWngGJy4eXrIPL910/hR7k
MfsR14946gKwqx8YqsSJPGRijXx55tNBt+e/AgMBAAGjggEOMIIBCjALBgNVHQ8E
BAMCBaAwCQYDVR0TBAIwADARBglghkgBhvhCAQEEBAMCBkAwMwYJYIZIAYb4QgEN
BCYWJE9wZW5TU0wgR2VuZXJhdGVkIFNlcnZlciBDZXJ0aWZpY2F0ZTAdBgNVHQ4E
FgQUPSu9MtVA4b8IJe6mdCKDfAPuhsAwdAYDVR0jBG0wa4AU9KfAzJFGr2TzkfIn
+Miyb4qHMnOhSKRGMEQxCzAJBgNVBAYTAkRFMQ8wDQYDVQQIDAZIZXNzZW4xFDAS
BgNVBAoMC3ByaXZhY3lpZGVhMQ4wDAYDVQQDDAVDQTAwMYIJAPvI66yDzRIHMBMG
A1UdJQQMMAoGCCsGAQUFBwMBMA0GCSqGSIb3DQEBCwUAA4IBAQCqhhgH3Co1nH9S
Q0lRH+UPGDX9voGHiUC0EMU8bSX6IiGl0QWS2lHtUcKR6w7I8Ep1xDlfss0BUxZK
KM7pttnpZ3aqNwHozNqZo78RaDsWfRdvais2VNgVJbftcZfrcdXARU+I4piOLTQX
RlyTiSQ1LCzn4ZgReYcMiwFnbHj0Dc9GZTx4hM5NJQgYm2VZRqep77Frc1WrMLf8
7kNgDsD64YvsoEWkyskgajLGbJ6ZKzWV3CFTwZB807ioVxARI53FMOittOg50nQQ
Qnf6LmGDBkxwNd4VsxUXrejrrEGiRPB3i4ShJBjFBVFPE9wLcJ5f1LHTsHq+4SbK
8Laesx3l
-----END CERTIFICATE-----
