Certificate:
    Data:
        Version: 3 (0x2)
        Serial Number: 268435676 (0x100000dc)
        Signature Algorithm: sha256WithRSAEncryption
        Issuer: C=DE, ST=Hessen, O=privacyidea, CN=CA001
        Validity
            Not Before: Feb 25 15:08:31 2022 GMT
            Not After : Feb 25 15:08:31 2023 GMT
        Subject: OU=realm1, CN=cornelius/emailAddress=user@localhost.localdomain
        Subject Public Key Info:
            Public Key Algorithm: rsaEncryption
                RSA Public-Key: (2048 bit)
                Modulus:
                    00:e4:97:f0:cb:e2:9f:21:77:f9:ee:5c:6f:8a:86:
                    53:85:9e:4a:8d:92:c3:6b:03:6b:21:d7:b2:a0:d5:
                    10:e5:ef:57:57:fe:2a:b0:e3:d6:24:2c:f0:1e:82:
                    17:9d:6f:77:5f:2d:64:30:57:4a:b5:0a:9c:8d:e3:
                    77:e5:4c:31:24:b1:54:ab:7c:1d:07:2f:6f:01:27:
                    fa:a0:cb:42:20:f9:ff:84:a9:69:04:c9:a7:06:28:
                    73:fd:9c:c7:ec:9d:61:85:bd:5a:83:f2:9a:79:8b:
                    e7:10:a4:29:62:47:e6:19:a1:df:1f:13:d4:65:ca:
                    db:dd:a5:2f:8c:1e:d0:1e:fc:9b:7f:f3:f3:2e:e1:
                    32:68:d3:ca:04:8f:21:e9:84:ca:48:be:49:8e:14:
                    aa:97:9c:93:dc:22:5c:3f:52:8d:a9:8b:b5:31:f1:
                    05:29:25:41:bc:94:0f:66:61:92:5f:ee:b6:5f:e4:
                    5d:2a:b3:2f:98:39:64:aa:af:3a:89:53:08:87:52:
                    16:ba:1d:66:e4:c7:d9:fb:69:aa:57:44:51:66:da:
                    ee:b3:36:c7:a3:47:22:d0:c5:b3:f3:2a:5d:27:7f:
                    3b:e6:33:3a:0c:64:fe:42:6a:cb:2a:0f:7e:9e:04:
                    e8:b8:a0:94:b8:0b:2a:d0:45:89:fc:a0:0f:72:ab:
                    5c:bf
                Exponent: 65537 (0x10001)
        X509v3 extensions:
            X509v3 Key Usage: 
                Digital Signature, Key Encipherment
            X509v3 Basic Constraints: 
                CA:FALSE
            Netscape Cert Type: 
                SSL Server
            Netscape Comment: 
                OpenSSL Generated Server Certificate
            X509v3 Subject Key Identifier: 
                E3:78:98:A4:B8:34:42:5B:CD:79:31:7C:E5:24:00:27:1D:03:AA:5B
            X509v3 Authority Key Identifier: 
                keyid:F4:A7:C0:CC:91:46:AF:64:F3:91:F2:27:F8:C8:B2:6F:8A:87:32:73
                DirName:/C=DE/ST=Hessen/O=privacyidea/CN=CA001
                serial:FB:C8:EB:AC:83:CD:12:07

            X509v3 Extended Key Usage: 
                TLS Web Server Authentication
    Signature Algorithm: sha256WithRSAEncryption
         16:6d:d4:04:de:88:29:0e:1a:6e:42:e8:54:b8:b5:64:d9:5e:
         37:fc:cc:1f:6a:1c:22:60:37:19:52:b2:6f:3f:d5:32:58:96:
         9e:19:7c:3e:da:2b:38:8c:b1:94:73:a9:a0:5f:a5:ab:37:54:
         d8:b2:ed:f8:60:93:30:f9:03:8e:de:b7:31:06:39:18:4f:5c:
         06:f1:b2:db:d3:7f:70:34:31:65:8d:95:a4:ed:55:c6:be:20:
         fe:3c:2e:1a:36:3e:cd:b6:16:88:4b:50:59:99:30:67:ce:de:
         54:a9:9f:7f:6d:2f:b4:90:19:70:e7:f3:03:85:f7:0d:5d:e0:
         cf:47:c0:c6:5e:b5:d0:67:05:8c:6a:78:bd:83:48:d5:d3:25:
         82:6c:67:69:88:0b:c9:3c:dd:66:8a:3a:9f:3d:e8:68:94:ab:
         0b:35:c2:37:a4:d3:ec:48:37:67:e5:d8:83:26:13:21:48:1c:
         a1:86:47:bf:7c:e6:a5:80:33:15:ad:af:59:a5:b0:ed:0d:1f:
         18:24:c6:49:c3:62:6a:2f:d2:50:87:06:2b:2a:04:67:46:75:
         26:c1:d2:0e:a4:a4:98:a2:7b:02:5a:51:51:28:6a:41:6e:ff:
         ca:8d:58:e2:e2:bb:d0:cb:cb:33:00:41:bc:a6:94:f0:1f:56:
         32:10:5c:ec
-----BEGIN CERTIFICATE-----
MIIEIjCCAwqgAwIBAgIEEAAA3DANBgkqhkiG9w0BAQsFADBEMQswCQYDVQQGEwJE
RTEPMA0GA1UECAwGSGVzc2VuMRQwEgYDVQQKDAtwcml2YWN5aWRlYTEOMAwGA1UE
AwwFQ0EwMDEwHhcNMjIwMjI1MTUwODMxWhcNMjMwMjI1MTUwODMxWjBQMQ8wDQYD
VQQLDAZyZWFsbTExEjAQBgNVBAMMCWNvcm5lbGl1czEpMCcGCSqGSIb3DQEJARYa
dXNlckBsb2NhbGhvc3QubG9jYWxkb21haW4wggEiMA0GCSqGSIb3DQEBAQUAA4IB
DwAwggEKAoIBAQDkl/DL4p8hd/nuXG+KhlOFnkqNksNrA2sh17Kg1RDl71dX/iqw
49YkLPAeghedb3dfLWQwV0q1CpyN43flTDEksVSrfB0HL28BJ/qgy0Ig+f+EqWkE
yacGKHP9nMfsnWGFvVqD8pp5i+cQpCliR+YZod8fE9RlytvdpS+MHtAe/Jt/8/Mu
4TJo08oEjyHphMpIvkmOFKqXnJPcIlw/Uo2pi7Ux8QUpJUG8lA9mYZJf7rZf5F0q
sy+YOWSqrzqJUwiHUha6HWbkx9n7aapXRFFm2u6zNsejRyLQxbPzKl0nfzvmMzoM
ZP5CassqD36eBOi4oJS4CyrQRYn8oA9yq1y/AgMBAAGjggEOMIIBCjALBgNVHQ8E
BAMCBaAwCQYDVR0TBAIwADARBglghkgBhvhCAQEEBAMCBkAwMwYJYIZIAYb4QgEN
BCYWJE9wZW5TU0wgR2VuZXJhdGVkIFNlcnZlciBDZXJ0aWZpY2F0ZTAdBgNVHQ4E
FgQU43iYpLg0QlvNeTF85SQAJx0DqlswdAYDVR0jBG0wa4AU9KfAzJFGr2TzkfIn
+Miyb4qHMnOhSKRGMEQxCzAJBgNVBAYTAkRFMQ8wDQYDVQQIDAZIZXNzZW4xFDAS
BgNVBAoMC3ByaXZhY3lpZGVhMQ4wDAYDVQQDDAVDQTAwMYIJAPvI66yDzRIHMBMG
A1UdJQQMMAoGCCsGAQUFBwMBMA0GCSqGSIb3DQEBCwUAA4IBAQAWbdQE3ogpDhpu
QuhUuLVk2V43/MwfahwiYDcZUrJvP9UyWJaeGXw+2is4jLGUc6mgX6WrN1TYsu34
YJMw+QOO3rcxBjkYT1wG8bLb039wNDFljZWk7VXGviD+PC4aNj7NthaIS1BZmTBn
zt5UqZ9/bS+0kBlw5/MDhfcNXeDPR8DGXrXQZwWMani9g0jV0yWCbGdpiAvJPN1m
ijqfPeholKsLNcI3pNPsSDdn5diDJhMhSByhhke/fOalgDMVra9ZpbDtDR8YJMZJ
w2JqL9JQhwYrKgRnRnUmwdIOpKSYonsCWlFRKGpBbv/KjVji4rvQy8szAEG8ppTw
H1YyEFzs
-----END CERTIFICATE-----
