Certificate:
    Data:
        Version: 3 (0x2)
        Serial Number: 268435669 (0x100000d5)
        Signature Algorithm: sha256WithRSAEncryption
        Issuer: C=DE, ST=Hessen, O=privacyidea, CN=CA001
        Validity
            Not Before: Feb 25 15:05:49 2022 GMT
            Not After : Feb 25 15:05:49 2023 GMT
        Subject: OU=realm1, CN=cornelius/emailAddress=user@localhost.localdomain
        Subject Public Key Info:
            Public Key Algorithm: rsaEncryption
                RSA Public-Key: (2048 bit)
                Modulus:
                    00:ae:21:da:32:5c:be:c3:10:72:82:bc:1e:9e:87:
                    0b:78:27:29:e8:e2:3d:71:8d:37:22:53:30:25:0f:
                    15:d4:68:e8:8e:51:81:8e:e1:59:ab:96:a7:cd:b3:
                    d3:fc:80:50:c5:78:c6:60:a7:46:63:77:24:9c:4c:
                    6d:8b:d2:29:fe:32:f1:17:70:4b:7a:e1:1e:9f:d1:
                    08:4b:68:50:47:fe:6d:16:0c:7c:74:33:3b:06:f7:
                    1f:5a:42:07:ea:01:1d:2f:e3:0d:f0:97:72:df:4f:
                    c9:7b:b7:48:43:e6:f1:d9:28:c4:db:92:82:34:95:
                    09:c4:cc:16:e9:3e:68:b5:34:8c:be:07:19:ad:b2:
                    cc:96:e5:e9:e6:c8:02:a0:d0:62:b0:31:7c:cc:58:
                    59:c0:cc:56:21:3c:32:d2:b6:72:cc:26:34:c5:c3:
                    e9:df:6c:a9:31:cb:8f:be:1f:44:5b:cb:08:88:4c:
                    6e:92:6f:0f:2b:d9:c7:6c:ee:92:fc:05:b7:e3:dd:
                    31:42:55:5f:f7:0c:f0:09:16:53:22:29:8d:7a:76:
                    62:a8:8d:28:cc:52:fd:c2:2f:5b:98:aa:5a:fd:ba:
                    a0:c2:61:0c:83:b1:b1:f3:17:2d:4d:b0:ce:0a:3d:
                    c6:12:9c:ac:bb:c0:c5:d0:d7:00:b3:ee:13:70:02:
                    54:05
                Exponent: 65537 (0x10001)
        X509v3 extensions:
            X509v3 Key Usage: 
                Digital Signature, Key Encipherment
            X509v3 Basic Constraints: 
                CA:FALSE
            Netscape Cert Type: 
                SSL Server
            Netscape Comment: 
                OpenSSL Generated Server Certificate
            X509v3 Subject Key Identifier: 
                9F:18:A8:36:B3:53:2F:B5:48:C0:A3:1E:35:4B:27:51:75:C8:8A:22
            X509v3 Authority Key Identifier: 
                keyid:F4:A7:C0:CC:91:46:AF:64:F3:91:F2:27:F8:C8:B2:6F:8A:87:32:73
                DirName:/C=DE/ST=Hessen/O=privacyidea/CN=CA001
                serial:FB:C8:EB:AC:83:CD:12:07

            X509v3 Extended Key Usage: 
                TLS Web Server Authentication
    Signature Algorithm: sha256WithRSAEncryption
         29:8a:e6:d4:4b:ac:b3:ea:7a:24:d0:d1:28:be:8f:cb:23:c3:
         84:1c:fe:04:9e:d8:be:b4:09:ab:7e:a2:cf:ef:f1:b0:f0:7d:
         23:56:20:38:10:60:35:dc:28:1c:e2:fa:43:e3:00:2f:d9:d1:
         37:61:86:c1:77:f4:2f:56:4c:e6:c0:2e:72:db:4c:ba:73:1e:
         e6:c5:1b:f7:3a:f2:92:57:17:05:c4:c0:25:1b:1c:21:9c:a2:
         26:aa:7f:73:ac:b5:37:a2:38:59:c5:b0:0b:5a:78:37:77:a7:
         22:38:22:f4:4d:c5:17:14:7a:50:6a:68:bc:3b:c4:79:f5:35:
         0d:e9:20:f4:90:0a:61:86:dc:24:bf:42:17:21:b0:85:dc:f0:
         3a:0c:59:0b:cc:2f:87:78:d9:c7:45:36:f5:fb:c1:f8:12:41:
         15:05:63:f3:ce:ea:d6:f4:4b:55:ca:9b:8d:fe:40:f7:dc:2c:
         3f:c0:50:ad:7f:71:7f:f2:db:27:bb:cd:9e:d6:98:00:9b:6c:
         dc:6e:34:c3:78:b4:c8:e9:e0:78:11:bb:39:7a:a6:35:c3:12:
         ca:2c:da:7b:38:08:7f:5d:48:9d:16:64:b9:9b:9a:d6:71:dc:
         18:47:e1:8d:a7:1d:0d:ac:3f:d3:68:a9:da:16:6b:be:56:47:
         8f:53:83:3f
-----BEGIN CERTIFICATE-----
MIIEIjCCAwqgAwIBAgIEEAAA1TANBgkqhkiG9w0BAQsFADBEMQswCQYDVQQGEwJE
RTEPMA0GA1UECAwGSGVzc2VuMRQwEgYDVQQKDAtwcml2YWN5aWRlYTEOMAwGA1UE
AwwFQ0EwMDEwHhcNMjIwMjI1MTUwNTQ5WhcNMjMwMjI1MTUwNTQ5WjBQMQ8wDQYD
VQQLDAZyZWFsbTExEjAQBgNVBAMMCWNvcm5lbGl1czEpMCcGCSqGSIb3DQEJARYa
dXNlckBsb2NhbGhvc3QubG9jYWxkb21haW4wggEiMA0GCSqGSIb3DQEBAQUAA4IB
DwAwggEKAoIBAQCuIdoyXL7DEHKCvB6ehwt4Jyno4j1xjTciUzAlDxXUaOiOUYGO
4VmrlqfNs9P8gFDFeMZgp0ZjdyScTG2L0in+MvEXcEt64R6f0QhLaFBH/m0WDHx0
MzsG9x9aQgfqAR0v4w3wl3LfT8l7t0hD5vHZKMTbkoI0lQnEzBbpPmi1NIy+Bxmt
ssyW5enmyAKg0GKwMXzMWFnAzFYhPDLStnLMJjTFw+nfbKkxy4++H0RbywiITG6S
bw8r2cds7pL8Bbfj3TFCVV/3DPAJFlMiKY16dmKojSjMUv3CL1uYqlr9uqDCYQyD
sbHzFy1NsM4KPcYSnKy7wMXQ1wCz7hNwAlQFAgMBAAGjggEOMIIBCjALBgNVHQ8E
BAMCBaAwCQYDVR0TBAIwADARBglghkgBhvhCAQEEBAMCBkAwMwYJYIZIAYb4QgEN
BCYWJE9wZW5TU0wgR2VuZXJhdGVkIFNlcnZlciBDZXJ0aWZpY2F0ZTAdBgNVHQ4E
FgQUnxioNrNTL7VIwKMeNUsnUXXIiiIwdAYDVR0jBG0wa4AU9KfAzJFGr2TzkfIn
+Miyb4qHMnOhSKRGMEQxCzAJBgNVBAYTAkRFMQ8wDQYDVQQIDAZIZXNzZW4xFDAS
BgNVBAoMC3ByaXZhY3lpZGVhMQ4wDAYDVQQDDAVDQTAwMYIJAPvI66yDzRIHMBMG
A1UdJQQMMAoGCCsGAQUFBwMBMA0GCSqGSIb3DQEBCwUAA4IBAQApiubUS6yz6nok
0NEovo/LI8OEHP4Enti+tAmrfqLP7/Gw8H0jViA4EGA13Cgc4vpD4wAv2dE3YYbB
d/QvVkzmwC5y20y6cx7mxRv3OvKSVxcFxMAlGxwhnKImqn9zrLU3ojhZxbALWng3
d6ciOCL0TcUXFHpQami8O8R59TUN6SD0kAphhtwkv0IXIbCF3PA6DFkLzC+HeNnH
RTb1+8H4EkEVBWPzzurW9EtVypuN/kD33Cw/wFCtf3F/8tsnu82e1pgAm2zcbjTD
eLTI6eB4Ebs5eqY1wxLKLNp7OAh/XUidFmS5m5rWcdwYR+GNpx0NrD/TaKnaFmu+
VkePU4M/
-----END CERTIFICATE-----
