Certificate:
    Data:
        Version: 3 (0x2)
        Serial Number: 268435679 (0x100000df)
        Signature Algorithm: sha256WithRSAEncryption
        Issuer: C=DE, ST=Hessen, O=privacyidea, CN=CA001
        Validity
            Not Before: Feb 24 15:51:07 2022 GMT
            Not After : Feb 24 15:51:07 2023 GMT
        Subject: OU=realm1, CN=cornelius/emailAddress=user@localhost.localdomain
        Subject Public Key Info:
            Public Key Algorithm: rsaEncryption
                RSA Public-Key: (2048 bit)
                Modulus:
                    00:a6:40:5f:9d:b0:9f:97:68:08:16:d8:8a:cb:df:
                    ca:67:ac:ca:88:71:a2:f2:51:87:49:3d:17:81:33:
                    e5:54:6f:f5:35:cb:79:92:fc:cd:8f:14:4e:64:ff:
                    9b:4e:a3:e6:1d:68:9f:6c:3a:a2:ae:ab:a3:d3:ab:
                    68:a4:a2:03:b6:21:94:d2:75:e0:82:58:0f:1e:cc:
                    fd:75:ca:13:c4:da:9f:37:08:c0:35:8f:5b:2b:62:
                    2a:7f:5a:18:c7:d7:09:8c:cc:77:5e:17:37:07:27:
                    c4:5d:0f:70:6d:95:7d:bc:75:58:98:b3:8f:c8:90:
                    72:91:30:1d:fd:2c:9a:b2:ac:6e:5f:f9:4a:d0:a9:
                    ce:2d:24:92:92:6e:4a:98:4a:ea:e7:99:db:09:47:
                    1c:f2:97:ff:43:af:77:db:d3:ea:2d:28:76:8c:5a:
                    ed:ff:7d:ef:60:50:b1:2a:1a:10:b8:89:99:77:9a:
                    64:8f:37:d4:d9:07:c5:f7:83:ae:c6:5c:15:21:89:
                    f4:2d:35:58:32:77:25:43:dc:0f:d7:6e:48:ad:0e:
                    d2:56:43:f0:66:c6:ba:84:4d:28:83:90:b5:3d:c6:
                    0a:2a:5e:6c:7c:85:b2:7e:2e:43:5d:4e:1c:f2:f5:
                    21:79:95:db:4a:9f:4e:30:94:de:69:87:97:12:0c:
                    bc:e1
                Exponent: 65537 (0x10001)
        X509v3 extensions:
            X509v3 Key Usage: 
                Digital Signature, Key Encipherment
            X509v3 Basic Constraints: 
                CA:FALSE
            Netscape Cert Type: 
                SSL Server
            Netscape Comment: 
                OpenSSL Generated Server Certificate
            X509v3 Subject Key Identifier: 
                71:29:EC:F8:81:D4:92:B7:D7:41:3C:C0:96:03:78:53:C3:FC:A8:FB
            X509v3 Authority Key Identifier: 
                keyid:F4:A7:C0:CC:91:46:AF:64:F3:91:F2:27:F8:C8:B2:6F:8A:87:32:73
                DirName:/C=DE/ST=Hessen/O=privacyidea/CN=CA001
                serial:FB:C8:EB:AC:83:CD:12:07

            X509v3 Extended Key Usage: 
                TLS Web Server Authentication
    Signature Algorithm: sha256WithRSAEncryption
         4e:94:a3:f2:92:69:97:e7:80:08:dc:3a:8a:48:46:06:dc:ce:
         64:81:21:68:de:38:c8:1b:67:68:01:8b:6d:db:5c:ff:72:08:
         4a:4e:e0:89:7c:92:5d:bd:02:67:73:58:2f:3b:74:41:7f:60:
         af:9c:42:a3:06:3f:d6:12:b8:b9:ab:74:1f:a9:84:e0:69:1c:
         9e:d5:45:28:14:2b:f4:31:ab:32:c9:ba:a6:d3:65:71:a3:d2:
         6a:62:46:06:ff:df:bb:0f:d0:b8:94:1f:1e:a2:21:e2:11:62:
         a1:96:13:69:a2:44:48:03:d9:f5:0f:51:a9:00:0f:5a:cc:55:
         53:ba:8b:3a:d3:49:f9:5c:3a:63:19:91:af:0a:c7:35:66:27:
         64:bd:f4:0a:ae:92:6f:9e:3b:36:4c:cd:de:95:4c:b4:e3:ea:
         db:64:ec:03:ce:c3:ab:c9:d6:9a:80:82:5a:a3:77:a8:0c:e0:
         8a:bf:2c:52:33:e2:63:a3:02:e7:d3:87:d1:26:cf:f9:77:28:
         e2:9d:7d:69:30:3f:1b:04:d1:4c:e0:9d:7d:17:a6:ee:29:7c:
         69:b7:1d:dd:2f:1a:2c:75:57:c4:97:3f:dc:32:ac:f5:7b:1d:
         ed:82:13:5d:31:24:d8:23:30:1c:98:21:43:b6:30:dc:21:cf:
         58:d9:db:50
-----BEGIN CERTIFICATE-----
MIIEIjCCAwqgAwIBAgIEEAAA3zANBgkqhkiG9w0BAQsFADBEMQswCQYDVQQGEwJE
RTEPMA0GA1UECAwGSGVzc2VuMRQwEgYDVQQKDAtwcml2YWN5aWRlYTEOMAwGA1UE
AwwFQ0EwMDEwHhcNMjIwMjI0MTU1MTA3WhcNMjMwMjI0MTU1MTA3WjBQMQ8wDQYD
VQQLDAZyZWFsbTExEjAQBgNVBAMMCWNvcm5lbGl1czEpMCcGCSqGSIb3DQEJARYa
dXNlckBsb2NhbGhvc3QubG9jYWxkb21haW4wggEiMA0GCSqGSIb3DQEBAQUAA4IB
DwAwggEKAoIBAQCmQF+dsJ+XaAgW2IrL38pnrMqIcaLyUYdJPReBM+VUb/U1y3mS
/M2PFE5k/5tOo+YdaJ9sOqKuq6PTq2ikogO2IZTSdeCCWA8ezP11yhPE2p83CMA1
j1srYip/WhjH1wmMzHdeFzcHJ8RdD3BtlX28dViYs4/IkHKRMB39LJqyrG5f+UrQ
qc4tJJKSbkqYSurnmdsJRxzyl/9Dr3fb0+otKHaMWu3/fe9gULEqGhC4iZl3mmSP
N9TZB8X3g67GXBUhifQtNVgydyVD3A/XbkitDtJWQ/BmxrqETSiDkLU9xgoqXmx8
hbJ+LkNdThzy9SF5ldtKn04wlN5ph5cSDLzhAgMBAAGjggEOMIIBCjALBgNVHQ8E
BAMCBaAwCQYDVR0TBAIwADARBglghkgBhvhCAQEEBAMCBkAwMwYJYIZIAYb4QgEN
BCYWJE9wZW5TU0wgR2VuZXJhdGVkIFNlcnZlciBDZXJ0aWZpY2F0ZTAdBgNVHQ4E
FgQUcSns+IHUkrfXQTzAlgN4U8P8qPswdAYDVR0jBG0wa4AU9KfAzJFGr2TzkfIn
+Miyb4qHMnOhSKRGMEQxCzAJBgNVBAYTAkRFMQ8wDQYDVQQIDAZIZXNzZW4xFDAS
BgNVBAoMC3ByaXZhY3lpZGVhMQ4wDAYDVQQDDAVDQTAwMYIJAPvI66yDzRIHMBMG
A1UdJQQMMAoGCCsGAQUFBwMBMA0GCSqGSIb3DQEBCwUAA4IBAQBOlKPykmmX54AI
3DqKSEYG3M5kgSFo3jjIG2doAYtt21z/cghKTuCJfJJdvQJnc1gvO3RBf2CvnEKj
Bj/WEri5q3QfqYTgaRye1UUoFCv0Masyybqm02Vxo9JqYkYG/9+7D9C4lB8eoiHi
EWKhlhNpokRIA9n1D1GpAA9azFVTuos600n5XDpjGZGvCsc1ZidkvfQKrpJvnjs2
TM3elUy04+rbZOwDzsOrydaagIJao3eoDOCKvyxSM+JjowLn04fRJs/5dyjinX1p
MD8bBNFM4J19F6buKXxptx3dLxosdVfElz/cMqz1ex3tghNdMSTYIzAcmCFDtjDc
Ic9Y2dtQ
-----END CERTIFICATE-----
