Certificate:
    Data:
        Version: 3 (0x2)
        Serial Number: 268435677 (0x100000dd)
        Signature Algorithm: sha256WithRSAEncryption
        Issuer: C=DE, ST=Hessen, O=privacyidea, CN=CA001
        Validity
            Not Before: Feb 25 15:08:57 2022 GMT
            Not After : Feb 25 15:08:57 2023 GMT
        Subject: C=DE, ST=Hessen, O=privacyidea, CN=requester.localdomain
        Subject Public Key Info:
            Public Key Algorithm: rsaEncryption
                RSA Public-Key: (2048 bit)
                Modulus:
                    00:cd:be:14:4f:fa:ce:01:3f:42:22:1b:1d:9c:af:
                    dd:92:d2:7f:db:6c:b7:3e:39:43:43:6b:13:03:f1:
                    05:f4:07:74:bc:76:69:28:0b:af:19:8e:d7:fc:e3:
                    cd:c6:58:f2:ca:7f:08:6d:53:fc:07:02:44:24:c6:
                    b4:34:4c:8c:04:fe:33:0e:40:e2:20:ba:02:73:5a:
                    f7:f5:4f:63:6e:cc:c6:b6:df:54:1d:37:39:7d:51:
                    36:26:5f:bd:dc:3f:a8:8b:6b:a2:ae:b6:9d:d6:21:
                    e7:df:41:b8:7a:28:2a:68:48:ca:a8:2d:ed:e1:e9:
                    46:5e:5a:72:6d:b4:84:38:87:91:fd:94:11:0b:28:
                    84:c6:c2:2f:2a:fb:01:f9:36:7a:09:75:d1:33:88:
                    3c:73:41:5b:c8:bf:94:89:70:a1:f0:c0:b9:2e:50:
                    53:1e:b1:17:64:69:f4:2d:81:e0:a9:0d:0e:32:e9:
                    ba:55:8a:85:f1:1b:6f:49:79:b4:7f:88:c3:0d:3e:
                    54:88:9b:3d:1f:38:8c:04:f3:ee:6a:63:2b:f5:c6:
                    db:b4:83:aa:c4:78:41:3a:7d:4b:e1:c8:3e:71:ca:
                    1b:61:59:ea:c6:c4:ca:32:5e:c9:e9:bf:12:29:e6:
                    c6:c3:63:fe:a0:55:da:7a:f1:60:98:4d:26:ed:fa:
                    70:2d
                Exponent: 65537 (0x10001)
        X509v3 extensions:
            X509v3 Key Usage: 
                Digital Signature, Key Encipherment
            X509v3 Basic Constraints: 
                CA:FALSE
            Netscape Cert Type: 
                SSL Server
            Netscape Comment: 
                OpenSSL Generated Server Certificate
            X509v3 Subject Key Identifier: 
                53:3F:ED:5D:09:07:B3:65:7B:AB:45:C9:24:5B:09:77:80:0A:96:ED
            X509v3 Authority Key Identifier: 
                keyid:F4:A7:C0:CC:91:46:AF:64:F3:91:F2:27:F8:C8:B2:6F:8A:87:32:73
                DirName:/C=DE/ST=Hessen/O=privacyidea/CN=CA001
                serial:FB:C8:EB:AC:83:CD:12:07

            X509v3 Extended Key Usage: 
                TLS Web Server Authentication
    Signature Algorithm: sha256WithRSAEncryption
         25:1a:19:6c:9b:72:12:65:87:d9:66:68:b3:a3:cd:46:ac:33:
         5f:04:f4:78:cf:d9:7f:c3:7c:f5:85:aa:c5:a3:1f:7a:01:ab:
         41:d4:79:dc:02:64:3f:12:c0:9e:c0:0e:2a:1d:2e:66:68:71:
         e7:c3:8e:0a:2f:6e:67:6b:22:00:a5:4f:db:38:f3:9c:94:eb:
         85:e4:57:80:17:ba:3c:60:a1:ae:21:b8:4c:74:f2:e9:a1:09:
         e4:d7:af:00:d6:b5:31:65:ef:c9:93:d3:65:e4:f2:9c:67:ed:
         83:28:c5:16:19:a2:e1:26:63:90:89:51:6d:b9:08:c4:3c:b4:
         27:46:2e:75:c9:19:a1:50:22:3a:72:28:78:40:2b:de:bb:f8:
         86:25:1d:b8:c2:c2:d1:de:8d:36:82:62:3b:2d:d9:98:89:30:
         b2:04:c7:39:61:9d:8e:7c:f0:74:07:bc:41:c4:6a:04:56:bf:
         a3:11:fd:dd:6e:7a:dd:eb:7e:eb:99:36:94:e3:ef:67:aa:7f:
         66:67:45:42:45:5e:6c:95:97:f2:63:1c:58:2d:ae:90:35:71:
         10:62:e0:f0:3a:0f:16:76:53:f5:dc:dd:a0:a2:30:50:9b:08:
         25:ff:8c:19:9e:3e:64:8a:6b:a9:39:b6:28:cd:7a:ea:47:63:
         bc:c6:be:5a
-----BEGIN CERTIFICATE-----
MIIEJjCCAw6gAwIBAgIEEAAA3TANBgkqhkiG9w0BAQsFADBEMQswCQYDVQQGEwJE
RTEPMA0GA1UECAwGSGVzc2VuMRQwEgYDVQQKDAtwcml2YWN5aWRlYTEOMAwGA1UE
AwwFQ0EwMDEwHhcNMjIwMjI1MTUwODU3WhcNMjMwMjI1MTUwODU3WjBUMQswCQYD
VQQGEwJERTEPMA0GA1UECAwGSGVzc2VuMRQwEgYDVQQKDAtwcml2YWN5aWRlYTEe
MBwGA1UEAwwVcmVxdWVzdGVyLmxvY2FsZG9tYWluMIIBIjANBgkqhkiG9w0BAQEF
AAOCAQ8AMIIBCgKCAQEAzb4UT/rOAT9CIhsdnK/dktJ/22y3PjlDQ2sTA/EF9Ad0
vHZpKAuvGY7X/OPNxljyyn8IbVP8BwJEJMa0NEyMBP4zDkDiILoCc1r39U9jbszG
tt9UHTc5fVE2Jl+93D+oi2uirrad1iHn30G4eigqaEjKqC3t4elGXlpybbSEOIeR
/ZQRCyiExsIvKvsB+TZ6CXXRM4g8c0FbyL+UiXCh8MC5LlBTHrEXZGn0LYHgqQ0O
Mum6VYqF8RtvSXm0f4jDDT5UiJs9HziMBPPuamMr9cbbtIOqxHhBOn1L4cg+ccob
YVnqxsTKMl7J6b8SKebGw2P+oFXaevFgmE0m7fpwLQIDAQABo4IBDjCCAQowCwYD
VR0PBAQDAgWgMAkGA1UdEwQCMAAwEQYJYIZIAYb4QgEBBAQDAgZAMDMGCWCGSAGG
+EIBDQQmFiRPcGVuU1NMIEdlbmVyYXRlZCBTZXJ2ZXIgQ2VydGlmaWNhdGUwHQYD
VR0OBBYEFFM/7V0JB7Nle6tFySRbCXeACpbtMHQGA1UdIwRtMGuAFPSnwMyRRq9k
85HyJ/jIsm+KhzJzoUikRjBEMQswCQYDVQQGEwJERTEPMA0GA1UECAwGSGVzc2Vu
MRQwEgYDVQQKDAtwcml2YWN5aWRlYTEOMAwGA1UEAwwFQ0EwMDGCCQD7yOusg80S
BzATBgNVHSUEDDAKBggrBgEFBQcDATANBgkqhkiG9w0BAQsFAAOCAQEAJRoZbJty
EmWH2WZos6PNRqwzXwT0eM/Zf8N89YWqxaMfegGrQdR53AJkPxLAnsAOKh0uZmhx
58OOCi9uZ2siAKVP2zjznJTrheRXgBe6PGChriG4THTy6aEJ5NevANa1MWXvyZPT
ZeTynGftgyjFFhmi4SZjkIlRbbkIxDy0J0YudckZoVAiOnIoeEAr3rv4hiUduMLC
0d6NNoJiOy3ZmIkwsgTHOWGdjnzwdAe8QcRqBFa/oxH93W563et+65k2lOPvZ6p/
ZmdFQkVebJWX8mMcWC2ukDVxEGLg8DoPFnZT9dzdoKIwUJsIJf+MGZ4+ZIprqTm2
KM166kdjvMa+Wg==
-----END CERTIFICATE-----
